
MCU_To_MCU_Bluetooth_Communication.elf:     file format elf32-avr

Sections:
Idx Name          Size      VMA       LMA       File off  Algn
  0 .text         0000220c  00000000  00000000  00000094  2**1
                  CONTENTS, ALLOC, LOAD, READONLY, CODE
  1 .data         0000007e  00800060  0000220c  000022a0  2**0
                  CONTENTS, ALLOC, LOAD, DATA
  2 .bss          00000043  008000de  008000de  0000231e  2**0
                  ALLOC
  3 .comment      00000030  00000000  00000000  0000231e  2**0
                  CONTENTS, READONLY
  4 .note.gnu.avr.deviceinfo 0000003c  00000000  00000000  00002350  2**2
                  CONTENTS, READONLY
  5 .debug_aranges 00000330  00000000  00000000  0000238c  2**0
                  CONTENTS, READONLY, DEBUGGING
  6 .debug_info   00002e26  00000000  00000000  000026bc  2**0
                  CONTENTS, READONLY, DEBUGGING
  7 .debug_abbrev 00000d83  00000000  00000000  000054e2  2**0
                  CONTENTS, READONLY, DEBUGGING
  8 .debug_line   00002d5d  00000000  00000000  00006265  2**0
                  CONTENTS, READONLY, DEBUGGING
  9 .debug_frame  00000a58  00000000  00000000  00008fc4  2**2
                  CONTENTS, READONLY, DEBUGGING
 10 .debug_str    000014f1  00000000  00000000  00009a1c  2**0
                  CONTENTS, READONLY, DEBUGGING
 11 .debug_loc    00001534  00000000  00000000  0000af0d  2**0
                  CONTENTS, READONLY, DEBUGGING
 12 .debug_ranges 00000280  00000000  00000000  0000c441  2**0
                  CONTENTS, READONLY, DEBUGGING

Disassembly of section .text:

00000000 <__vectors>:
       0:	0c 94 39 00 	jmp	0x72	; 0x72 <__ctors_end>
       4:	0c 94 56 00 	jmp	0xac	; 0xac <__bad_interrupt>
       8:	0c 94 56 00 	jmp	0xac	; 0xac <__bad_interrupt>
       c:	0c 94 56 00 	jmp	0xac	; 0xac <__bad_interrupt>
      10:	0c 94 56 00 	jmp	0xac	; 0xac <__bad_interrupt>
      14:	0c 94 56 00 	jmp	0xac	; 0xac <__bad_interrupt>
      18:	0c 94 56 00 	jmp	0xac	; 0xac <__bad_interrupt>
      1c:	0c 94 b6 00 	jmp	0x16c	; 0x16c <__vector_7>
      20:	0c 94 56 00 	jmp	0xac	; 0xac <__bad_interrupt>
      24:	0c 94 56 00 	jmp	0xac	; 0xac <__bad_interrupt>
      28:	0c 94 56 00 	jmp	0xac	; 0xac <__bad_interrupt>
      2c:	0c 94 56 00 	jmp	0xac	; 0xac <__bad_interrupt>
      30:	0c 94 56 00 	jmp	0xac	; 0xac <__bad_interrupt>
      34:	0c 94 56 00 	jmp	0xac	; 0xac <__bad_interrupt>
      38:	0c 94 56 00 	jmp	0xac	; 0xac <__bad_interrupt>
      3c:	0c 94 56 00 	jmp	0xac	; 0xac <__bad_interrupt>
      40:	0c 94 56 00 	jmp	0xac	; 0xac <__bad_interrupt>
      44:	0c 94 56 00 	jmp	0xac	; 0xac <__bad_interrupt>
      48:	0c 94 56 00 	jmp	0xac	; 0xac <__bad_interrupt>
      4c:	0c 94 56 00 	jmp	0xac	; 0xac <__bad_interrupt>
      50:	0c 94 56 00 	jmp	0xac	; 0xac <__bad_interrupt>
      54:	07 09       	sbc	r16, r7
      56:	13 09       	sbc	r17, r3
      58:	1f 09       	sbc	r17, r15
      5a:	2b 09       	sbc	r18, r11
      5c:	37 09       	sbc	r19, r7
      5e:	43 09       	sbc	r20, r3
      60:	4f 09       	sbc	r20, r15
      62:	b2 0d       	add	r27, r2
      64:	be 0d       	add	r27, r14
      66:	ca 0d       	add	r28, r10
      68:	f1 0d       	add	r31, r1
      6a:	0e 0e       	add	r0, r30
      6c:	31 0e       	add	r3, r17
      6e:	4e 0e       	add	r4, r30
      70:	5a 0e       	add	r5, r26

00000072 <__ctors_end>:
      72:	11 24       	eor	r1, r1
      74:	1f be       	out	0x3f, r1	; 63
      76:	cf e5       	ldi	r28, 0x5F	; 95
      78:	d8 e0       	ldi	r29, 0x08	; 8
      7a:	de bf       	out	0x3e, r29	; 62
      7c:	cd bf       	out	0x3d, r28	; 61

0000007e <__do_copy_data>:
      7e:	10 e0       	ldi	r17, 0x00	; 0
      80:	a0 e6       	ldi	r26, 0x60	; 96
      82:	b0 e0       	ldi	r27, 0x00	; 0
      84:	ec e0       	ldi	r30, 0x0C	; 12
      86:	f2 e2       	ldi	r31, 0x22	; 34
      88:	02 c0       	rjmp	.+4      	; 0x8e <__do_copy_data+0x10>
      8a:	05 90       	lpm	r0, Z+
      8c:	0d 92       	st	X+, r0
      8e:	ae 3d       	cpi	r26, 0xDE	; 222
      90:	b1 07       	cpc	r27, r17
      92:	d9 f7       	brne	.-10     	; 0x8a <__do_copy_data+0xc>

00000094 <__do_clear_bss>:
      94:	21 e0       	ldi	r18, 0x01	; 1
      96:	ae ed       	ldi	r26, 0xDE	; 222
      98:	b0 e0       	ldi	r27, 0x00	; 0
      9a:	01 c0       	rjmp	.+2      	; 0x9e <.do_clear_bss_start>

0000009c <.do_clear_bss_loop>:
      9c:	1d 92       	st	X+, r1

0000009e <.do_clear_bss_start>:
      9e:	a1 32       	cpi	r26, 0x21	; 33
      a0:	b2 07       	cpc	r27, r18
      a2:	e1 f7       	brne	.-8      	; 0x9c <.do_clear_bss_loop>
      a4:	0e 94 57 0f 	call	0x1eae	; 0x1eae <main>
      a8:	0c 94 04 11 	jmp	0x2208	; 0x2208 <_exit>

000000ac <__bad_interrupt>:
      ac:	0c 94 00 00 	jmp	0	; 0x0 <__vectors>

000000b0 <vPortYieldFromTick>:
	/* Enable the interrupt - this is okay as interrupt are currently globally
	disabled. */
	ucLowByte = TIMSK;
	ucLowByte |= portCOMPARE_MATCH_A_INTERRUPT_ENABLE;
	TIMSK = ucLowByte;
}
      b0:	0f 92       	push	r0
      b2:	0f b6       	in	r0, 0x3f	; 63
      b4:	f8 94       	cli
      b6:	0f 92       	push	r0
      b8:	1f 92       	push	r1
      ba:	11 24       	eor	r1, r1
      bc:	2f 92       	push	r2
      be:	3f 92       	push	r3
      c0:	4f 92       	push	r4
      c2:	5f 92       	push	r5
      c4:	6f 92       	push	r6
      c6:	7f 92       	push	r7
      c8:	8f 92       	push	r8
      ca:	9f 92       	push	r9
      cc:	af 92       	push	r10
      ce:	bf 92       	push	r11
      d0:	cf 92       	push	r12
      d2:	df 92       	push	r13
      d4:	ef 92       	push	r14
      d6:	ff 92       	push	r15
      d8:	0f 93       	push	r16
      da:	1f 93       	push	r17
      dc:	2f 93       	push	r18
      de:	3f 93       	push	r19
      e0:	4f 93       	push	r20
      e2:	5f 93       	push	r21
      e4:	6f 93       	push	r22
      e6:	7f 93       	push	r23
      e8:	8f 93       	push	r24
      ea:	9f 93       	push	r25
      ec:	af 93       	push	r26
      ee:	bf 93       	push	r27
      f0:	cf 93       	push	r28
      f2:	df 93       	push	r29
      f4:	ef 93       	push	r30
      f6:	ff 93       	push	r31
      f8:	a0 91 de 00 	lds	r26, 0x00DE	; 0x8000de <__data_end>
      fc:	b0 91 df 00 	lds	r27, 0x00DF	; 0x8000df <__data_end+0x1>
     100:	0d b6       	in	r0, 0x3d	; 61
     102:	0d 92       	st	X+, r0
     104:	0e b6       	in	r0, 0x3e	; 62
     106:	0d 92       	st	X+, r0
     108:	0e 94 ba 00 	call	0x174	; 0x174 <xTaskIncrementTick>
     10c:	88 23       	and	r24, r24
     10e:	11 f0       	breq	.+4      	; 0x114 <vPortYieldFromTick+0x64>
     110:	0e 94 89 02 	call	0x512	; 0x512 <vTaskSwitchContext>
     114:	a0 91 de 00 	lds	r26, 0x00DE	; 0x8000de <__data_end>
     118:	b0 91 df 00 	lds	r27, 0x00DF	; 0x8000df <__data_end+0x1>
     11c:	cd 91       	ld	r28, X+
     11e:	cd bf       	out	0x3d, r28	; 61
     120:	dd 91       	ld	r29, X+
     122:	de bf       	out	0x3e, r29	; 62
     124:	ff 91       	pop	r31
     126:	ef 91       	pop	r30
     128:	df 91       	pop	r29
     12a:	cf 91       	pop	r28
     12c:	bf 91       	pop	r27
     12e:	af 91       	pop	r26
     130:	9f 91       	pop	r25
     132:	8f 91       	pop	r24
     134:	7f 91       	pop	r23
     136:	6f 91       	pop	r22
     138:	5f 91       	pop	r21
     13a:	4f 91       	pop	r20
     13c:	3f 91       	pop	r19
     13e:	2f 91       	pop	r18
     140:	1f 91       	pop	r17
     142:	0f 91       	pop	r16
     144:	ff 90       	pop	r15
     146:	ef 90       	pop	r14
     148:	df 90       	pop	r13
     14a:	cf 90       	pop	r12
     14c:	bf 90       	pop	r11
     14e:	af 90       	pop	r10
     150:	9f 90       	pop	r9
     152:	8f 90       	pop	r8
     154:	7f 90       	pop	r7
     156:	6f 90       	pop	r6
     158:	5f 90       	pop	r5
     15a:	4f 90       	pop	r4
     15c:	3f 90       	pop	r3
     15e:	2f 90       	pop	r2
     160:	1f 90       	pop	r1
     162:	0f 90       	pop	r0
     164:	0f be       	out	0x3f, r0	; 63
     166:	0f 90       	pop	r0
     168:	08 95       	ret
	...

0000016c <__vector_7>:
	 * count is incremented after the context is saved.
	 */
	void TIMER1_COMPA_vect( void ) __attribute__ ( ( signal, naked ) );
	void TIMER1_COMPA_vect( void )
	{
		vPortYieldFromTick();
     16c:	0e 94 58 00 	call	0xb0	; 0xb0 <vPortYieldFromTick>
		asm volatile ( "reti" );
     170:	18 95       	reti
	...

00000174 <xTaskIncrementTick>:
                    configASSERT( pxTCB->ucStaticallyAllocated == tskSTATICALLY_ALLOCATED_STACK_AND_TCB );
                    mtCOVERAGE_TEST_MARKER();
                }
            }
        #endif /* configSUPPORT_DYNAMIC_ALLOCATION */
    }
     174:	cf 93       	push	r28
     176:	df 93       	push	r29
     178:	cd b7       	in	r28, 0x3d	; 61
     17a:	de b7       	in	r29, 0x3e	; 62
     17c:	2f 97       	sbiw	r28, 0x0f	; 15
     17e:	0f b6       	in	r0, 0x3f	; 63
     180:	f8 94       	cli
     182:	de bf       	out	0x3e, r29	; 62
     184:	0f be       	out	0x3f, r0	; 63
     186:	cd bf       	out	0x3d, r28	; 61
     188:	19 82       	std	Y+1, r1	; 0x01
     18a:	80 91 11 01 	lds	r24, 0x0111	; 0x800111 <uxSchedulerSuspended>
     18e:	88 23       	and	r24, r24
     190:	09 f0       	breq	.+2      	; 0x194 <xTaskIncrementTick+0x20>
     192:	ac c1       	rjmp	.+856    	; 0x4ec <__EEPROM_REGION_LENGTH__+0xec>
     194:	80 91 08 01 	lds	r24, 0x0108	; 0x800108 <xTickCount>
     198:	90 91 09 01 	lds	r25, 0x0109	; 0x800109 <xTickCount+0x1>
     19c:	01 96       	adiw	r24, 0x01	; 1
     19e:	9b 83       	std	Y+3, r25	; 0x03
     1a0:	8a 83       	std	Y+2, r24	; 0x02
     1a2:	8a 81       	ldd	r24, Y+2	; 0x02
     1a4:	9b 81       	ldd	r25, Y+3	; 0x03
     1a6:	90 93 09 01 	sts	0x0109, r25	; 0x800109 <xTickCount+0x1>
     1aa:	80 93 08 01 	sts	0x0108, r24	; 0x800108 <xTickCount>
     1ae:	8a 81       	ldd	r24, Y+2	; 0x02
     1b0:	9b 81       	ldd	r25, Y+3	; 0x03
     1b2:	89 2b       	or	r24, r25
     1b4:	d9 f4       	brne	.+54     	; 0x1ec <xTaskIncrementTick+0x78>
     1b6:	80 91 04 01 	lds	r24, 0x0104	; 0x800104 <pxDelayedTaskList>
     1ba:	90 91 05 01 	lds	r25, 0x0105	; 0x800105 <pxDelayedTaskList+0x1>
     1be:	9d 83       	std	Y+5, r25	; 0x05
     1c0:	8c 83       	std	Y+4, r24	; 0x04
     1c2:	80 91 06 01 	lds	r24, 0x0106	; 0x800106 <pxOverflowDelayedTaskList>
     1c6:	90 91 07 01 	lds	r25, 0x0107	; 0x800107 <pxOverflowDelayedTaskList+0x1>
     1ca:	90 93 05 01 	sts	0x0105, r25	; 0x800105 <pxDelayedTaskList+0x1>
     1ce:	80 93 04 01 	sts	0x0104, r24	; 0x800104 <pxDelayedTaskList>
     1d2:	8c 81       	ldd	r24, Y+4	; 0x04
     1d4:	9d 81       	ldd	r25, Y+5	; 0x05
     1d6:	90 93 07 01 	sts	0x0107, r25	; 0x800107 <pxOverflowDelayedTaskList+0x1>
     1da:	80 93 06 01 	sts	0x0106, r24	; 0x800106 <pxOverflowDelayedTaskList>
     1de:	80 91 0e 01 	lds	r24, 0x010E	; 0x80010e <xNumOfOverflows>
     1e2:	8f 5f       	subi	r24, 0xFF	; 255
     1e4:	80 93 0e 01 	sts	0x010E, r24	; 0x80010e <xNumOfOverflows>
     1e8:	0e 94 fd 02 	call	0x5fa	; 0x5fa <prvResetNextTaskUnblockTime>
     1ec:	80 91 0f 01 	lds	r24, 0x010F	; 0x80010f <xNextTaskUnblockTime>
     1f0:	90 91 10 01 	lds	r25, 0x0110	; 0x800110 <xNextTaskUnblockTime+0x1>
     1f4:	2a 81       	ldd	r18, Y+2	; 0x02
     1f6:	3b 81       	ldd	r19, Y+3	; 0x03
     1f8:	28 17       	cp	r18, r24
     1fa:	39 07       	cpc	r19, r25
     1fc:	08 f4       	brcc	.+2      	; 0x200 <xTaskIncrementTick+0x8c>
     1fe:	56 c1       	rjmp	.+684    	; 0x4ac <__EEPROM_REGION_LENGTH__+0xac>
     200:	80 91 04 01 	lds	r24, 0x0104	; 0x800104 <pxDelayedTaskList>
     204:	90 91 05 01 	lds	r25, 0x0105	; 0x800105 <pxDelayedTaskList+0x1>
     208:	fc 01       	movw	r30, r24
     20a:	80 81       	ld	r24, Z
     20c:	88 23       	and	r24, r24
     20e:	39 f4       	brne	.+14     	; 0x21e <xTaskIncrementTick+0xaa>
     210:	8f ef       	ldi	r24, 0xFF	; 255
     212:	9f ef       	ldi	r25, 0xFF	; 255
     214:	90 93 10 01 	sts	0x0110, r25	; 0x800110 <xNextTaskUnblockTime+0x1>
     218:	80 93 0f 01 	sts	0x010F, r24	; 0x80010f <xNextTaskUnblockTime>
     21c:	47 c1       	rjmp	.+654    	; 0x4ac <__EEPROM_REGION_LENGTH__+0xac>
     21e:	80 91 04 01 	lds	r24, 0x0104	; 0x800104 <pxDelayedTaskList>
     222:	90 91 05 01 	lds	r25, 0x0105	; 0x800105 <pxDelayedTaskList+0x1>
     226:	fc 01       	movw	r30, r24
     228:	85 81       	ldd	r24, Z+5	; 0x05
     22a:	96 81       	ldd	r25, Z+6	; 0x06
     22c:	fc 01       	movw	r30, r24
     22e:	86 81       	ldd	r24, Z+6	; 0x06
     230:	97 81       	ldd	r25, Z+7	; 0x07
     232:	9f 83       	std	Y+7, r25	; 0x07
     234:	8e 83       	std	Y+6, r24	; 0x06
     236:	8e 81       	ldd	r24, Y+6	; 0x06
     238:	9f 81       	ldd	r25, Y+7	; 0x07
     23a:	fc 01       	movw	r30, r24
     23c:	82 81       	ldd	r24, Z+2	; 0x02
     23e:	93 81       	ldd	r25, Z+3	; 0x03
     240:	99 87       	std	Y+9, r25	; 0x09
     242:	88 87       	std	Y+8, r24	; 0x08
     244:	2a 81       	ldd	r18, Y+2	; 0x02
     246:	3b 81       	ldd	r19, Y+3	; 0x03
     248:	88 85       	ldd	r24, Y+8	; 0x08
     24a:	99 85       	ldd	r25, Y+9	; 0x09
     24c:	28 17       	cp	r18, r24
     24e:	39 07       	cpc	r19, r25
     250:	38 f4       	brcc	.+14     	; 0x260 <xTaskIncrementTick+0xec>
     252:	88 85       	ldd	r24, Y+8	; 0x08
     254:	99 85       	ldd	r25, Y+9	; 0x09
     256:	90 93 10 01 	sts	0x0110, r25	; 0x800110 <xNextTaskUnblockTime+0x1>
     25a:	80 93 0f 01 	sts	0x010F, r24	; 0x80010f <xNextTaskUnblockTime>
     25e:	26 c1       	rjmp	.+588    	; 0x4ac <__EEPROM_REGION_LENGTH__+0xac>
     260:	8e 81       	ldd	r24, Y+6	; 0x06
     262:	9f 81       	ldd	r25, Y+7	; 0x07
     264:	fc 01       	movw	r30, r24
     266:	82 85       	ldd	r24, Z+10	; 0x0a
     268:	93 85       	ldd	r25, Z+11	; 0x0b
     26a:	9b 87       	std	Y+11, r25	; 0x0b
     26c:	8a 87       	std	Y+10, r24	; 0x0a
     26e:	8e 81       	ldd	r24, Y+6	; 0x06
     270:	9f 81       	ldd	r25, Y+7	; 0x07
     272:	fc 01       	movw	r30, r24
     274:	84 81       	ldd	r24, Z+4	; 0x04
     276:	95 81       	ldd	r25, Z+5	; 0x05
     278:	2e 81       	ldd	r18, Y+6	; 0x06
     27a:	3f 81       	ldd	r19, Y+7	; 0x07
     27c:	f9 01       	movw	r30, r18
     27e:	26 81       	ldd	r18, Z+6	; 0x06
     280:	37 81       	ldd	r19, Z+7	; 0x07
     282:	fc 01       	movw	r30, r24
     284:	35 83       	std	Z+5, r19	; 0x05
     286:	24 83       	std	Z+4, r18	; 0x04
     288:	8e 81       	ldd	r24, Y+6	; 0x06
     28a:	9f 81       	ldd	r25, Y+7	; 0x07
     28c:	fc 01       	movw	r30, r24
     28e:	86 81       	ldd	r24, Z+6	; 0x06
     290:	97 81       	ldd	r25, Z+7	; 0x07
     292:	2e 81       	ldd	r18, Y+6	; 0x06
     294:	3f 81       	ldd	r19, Y+7	; 0x07
     296:	f9 01       	movw	r30, r18
     298:	24 81       	ldd	r18, Z+4	; 0x04
     29a:	35 81       	ldd	r19, Z+5	; 0x05
     29c:	fc 01       	movw	r30, r24
     29e:	33 83       	std	Z+3, r19	; 0x03
     2a0:	22 83       	std	Z+2, r18	; 0x02
     2a2:	8a 85       	ldd	r24, Y+10	; 0x0a
     2a4:	9b 85       	ldd	r25, Y+11	; 0x0b
     2a6:	fc 01       	movw	r30, r24
     2a8:	21 81       	ldd	r18, Z+1	; 0x01
     2aa:	32 81       	ldd	r19, Z+2	; 0x02
     2ac:	8e 81       	ldd	r24, Y+6	; 0x06
     2ae:	9f 81       	ldd	r25, Y+7	; 0x07
     2b0:	02 96       	adiw	r24, 0x02	; 2
     2b2:	28 17       	cp	r18, r24
     2b4:	39 07       	cpc	r19, r25
     2b6:	51 f4       	brne	.+20     	; 0x2cc <xTaskIncrementTick+0x158>
     2b8:	8e 81       	ldd	r24, Y+6	; 0x06
     2ba:	9f 81       	ldd	r25, Y+7	; 0x07
     2bc:	fc 01       	movw	r30, r24
     2be:	26 81       	ldd	r18, Z+6	; 0x06
     2c0:	37 81       	ldd	r19, Z+7	; 0x07
     2c2:	8a 85       	ldd	r24, Y+10	; 0x0a
     2c4:	9b 85       	ldd	r25, Y+11	; 0x0b
     2c6:	fc 01       	movw	r30, r24
     2c8:	32 83       	std	Z+2, r19	; 0x02
     2ca:	21 83       	std	Z+1, r18	; 0x01
     2cc:	8e 81       	ldd	r24, Y+6	; 0x06
     2ce:	9f 81       	ldd	r25, Y+7	; 0x07
     2d0:	fc 01       	movw	r30, r24
     2d2:	13 86       	std	Z+11, r1	; 0x0b
     2d4:	12 86       	std	Z+10, r1	; 0x0a
     2d6:	8a 85       	ldd	r24, Y+10	; 0x0a
     2d8:	9b 85       	ldd	r25, Y+11	; 0x0b
     2da:	fc 01       	movw	r30, r24
     2dc:	80 81       	ld	r24, Z
     2de:	2f ef       	ldi	r18, 0xFF	; 255
     2e0:	28 0f       	add	r18, r24
     2e2:	8a 85       	ldd	r24, Y+10	; 0x0a
     2e4:	9b 85       	ldd	r25, Y+11	; 0x0b
     2e6:	fc 01       	movw	r30, r24
     2e8:	20 83       	st	Z, r18
     2ea:	8e 81       	ldd	r24, Y+6	; 0x06
     2ec:	9f 81       	ldd	r25, Y+7	; 0x07
     2ee:	fc 01       	movw	r30, r24
     2f0:	84 89       	ldd	r24, Z+20	; 0x14
     2f2:	95 89       	ldd	r25, Z+21	; 0x15
     2f4:	89 2b       	or	r24, r25
     2f6:	09 f4       	brne	.+2      	; 0x2fa <xTaskIncrementTick+0x186>
     2f8:	45 c0       	rjmp	.+138    	; 0x384 <xTaskIncrementTick+0x210>
     2fa:	8e 81       	ldd	r24, Y+6	; 0x06
     2fc:	9f 81       	ldd	r25, Y+7	; 0x07
     2fe:	fc 01       	movw	r30, r24
     300:	84 89       	ldd	r24, Z+20	; 0x14
     302:	95 89       	ldd	r25, Z+21	; 0x15
     304:	9d 87       	std	Y+13, r25	; 0x0d
     306:	8c 87       	std	Y+12, r24	; 0x0c
     308:	8e 81       	ldd	r24, Y+6	; 0x06
     30a:	9f 81       	ldd	r25, Y+7	; 0x07
     30c:	fc 01       	movw	r30, r24
     30e:	86 85       	ldd	r24, Z+14	; 0x0e
     310:	97 85       	ldd	r25, Z+15	; 0x0f
     312:	2e 81       	ldd	r18, Y+6	; 0x06
     314:	3f 81       	ldd	r19, Y+7	; 0x07
     316:	f9 01       	movw	r30, r18
     318:	20 89       	ldd	r18, Z+16	; 0x10
     31a:	31 89       	ldd	r19, Z+17	; 0x11
     31c:	fc 01       	movw	r30, r24
     31e:	35 83       	std	Z+5, r19	; 0x05
     320:	24 83       	std	Z+4, r18	; 0x04
     322:	8e 81       	ldd	r24, Y+6	; 0x06
     324:	9f 81       	ldd	r25, Y+7	; 0x07
     326:	fc 01       	movw	r30, r24
     328:	80 89       	ldd	r24, Z+16	; 0x10
     32a:	91 89       	ldd	r25, Z+17	; 0x11
     32c:	2e 81       	ldd	r18, Y+6	; 0x06
     32e:	3f 81       	ldd	r19, Y+7	; 0x07
     330:	f9 01       	movw	r30, r18
     332:	26 85       	ldd	r18, Z+14	; 0x0e
     334:	37 85       	ldd	r19, Z+15	; 0x0f
     336:	fc 01       	movw	r30, r24
     338:	33 83       	std	Z+3, r19	; 0x03
     33a:	22 83       	std	Z+2, r18	; 0x02
     33c:	8c 85       	ldd	r24, Y+12	; 0x0c
     33e:	9d 85       	ldd	r25, Y+13	; 0x0d
     340:	fc 01       	movw	r30, r24
     342:	21 81       	ldd	r18, Z+1	; 0x01
     344:	32 81       	ldd	r19, Z+2	; 0x02
     346:	8e 81       	ldd	r24, Y+6	; 0x06
     348:	9f 81       	ldd	r25, Y+7	; 0x07
     34a:	0c 96       	adiw	r24, 0x0c	; 12
     34c:	28 17       	cp	r18, r24
     34e:	39 07       	cpc	r19, r25
     350:	51 f4       	brne	.+20     	; 0x366 <xTaskIncrementTick+0x1f2>
     352:	8e 81       	ldd	r24, Y+6	; 0x06
     354:	9f 81       	ldd	r25, Y+7	; 0x07
     356:	fc 01       	movw	r30, r24
     358:	20 89       	ldd	r18, Z+16	; 0x10
     35a:	31 89       	ldd	r19, Z+17	; 0x11
     35c:	8c 85       	ldd	r24, Y+12	; 0x0c
     35e:	9d 85       	ldd	r25, Y+13	; 0x0d
     360:	fc 01       	movw	r30, r24
     362:	32 83       	std	Z+2, r19	; 0x02
     364:	21 83       	std	Z+1, r18	; 0x01
     366:	8e 81       	ldd	r24, Y+6	; 0x06
     368:	9f 81       	ldd	r25, Y+7	; 0x07
     36a:	fc 01       	movw	r30, r24
     36c:	15 8a       	std	Z+21, r1	; 0x15
     36e:	14 8a       	std	Z+20, r1	; 0x14
     370:	8c 85       	ldd	r24, Y+12	; 0x0c
     372:	9d 85       	ldd	r25, Y+13	; 0x0d
     374:	fc 01       	movw	r30, r24
     376:	80 81       	ld	r24, Z
     378:	2f ef       	ldi	r18, 0xFF	; 255
     37a:	28 0f       	add	r18, r24
     37c:	8c 85       	ldd	r24, Y+12	; 0x0c
     37e:	9d 85       	ldd	r25, Y+13	; 0x0d
     380:	fc 01       	movw	r30, r24
     382:	20 83       	st	Z, r18
     384:	8e 81       	ldd	r24, Y+6	; 0x06
     386:	9f 81       	ldd	r25, Y+7	; 0x07
     388:	fc 01       	movw	r30, r24
     38a:	96 89       	ldd	r25, Z+22	; 0x16
     38c:	80 91 0a 01 	lds	r24, 0x010A	; 0x80010a <uxTopReadyPriority>
     390:	89 17       	cp	r24, r25
     392:	30 f4       	brcc	.+12     	; 0x3a0 <xTaskIncrementTick+0x22c>
     394:	8e 81       	ldd	r24, Y+6	; 0x06
     396:	9f 81       	ldd	r25, Y+7	; 0x07
     398:	fc 01       	movw	r30, r24
     39a:	86 89       	ldd	r24, Z+22	; 0x16
     39c:	80 93 0a 01 	sts	0x010A, r24	; 0x80010a <uxTopReadyPriority>
     3a0:	8e 81       	ldd	r24, Y+6	; 0x06
     3a2:	9f 81       	ldd	r25, Y+7	; 0x07
     3a4:	fc 01       	movw	r30, r24
     3a6:	86 89       	ldd	r24, Z+22	; 0x16
     3a8:	28 2f       	mov	r18, r24
     3aa:	30 e0       	ldi	r19, 0x00	; 0
     3ac:	c9 01       	movw	r24, r18
     3ae:	88 0f       	add	r24, r24
     3b0:	99 1f       	adc	r25, r25
     3b2:	88 0f       	add	r24, r24
     3b4:	99 1f       	adc	r25, r25
     3b6:	88 0f       	add	r24, r24
     3b8:	99 1f       	adc	r25, r25
     3ba:	82 0f       	add	r24, r18
     3bc:	93 1f       	adc	r25, r19
     3be:	8f 51       	subi	r24, 0x1F	; 31
     3c0:	9f 4f       	sbci	r25, 0xFF	; 255
     3c2:	fc 01       	movw	r30, r24
     3c4:	80 81       	ld	r24, Z
     3c6:	91 81       	ldd	r25, Z+1	; 0x01
     3c8:	9f 87       	std	Y+15, r25	; 0x0f
     3ca:	8e 87       	std	Y+14, r24	; 0x0e
     3cc:	8e 81       	ldd	r24, Y+6	; 0x06
     3ce:	9f 81       	ldd	r25, Y+7	; 0x07
     3d0:	2e 85       	ldd	r18, Y+14	; 0x0e
     3d2:	3f 85       	ldd	r19, Y+15	; 0x0f
     3d4:	fc 01       	movw	r30, r24
     3d6:	35 83       	std	Z+5, r19	; 0x05
     3d8:	24 83       	std	Z+4, r18	; 0x04
     3da:	8e 85       	ldd	r24, Y+14	; 0x0e
     3dc:	9f 85       	ldd	r25, Y+15	; 0x0f
     3de:	fc 01       	movw	r30, r24
     3e0:	24 81       	ldd	r18, Z+4	; 0x04
     3e2:	35 81       	ldd	r19, Z+5	; 0x05
     3e4:	8e 81       	ldd	r24, Y+6	; 0x06
     3e6:	9f 81       	ldd	r25, Y+7	; 0x07
     3e8:	fc 01       	movw	r30, r24
     3ea:	37 83       	std	Z+7, r19	; 0x07
     3ec:	26 83       	std	Z+6, r18	; 0x06
     3ee:	8e 85       	ldd	r24, Y+14	; 0x0e
     3f0:	9f 85       	ldd	r25, Y+15	; 0x0f
     3f2:	fc 01       	movw	r30, r24
     3f4:	84 81       	ldd	r24, Z+4	; 0x04
     3f6:	95 81       	ldd	r25, Z+5	; 0x05
     3f8:	2e 81       	ldd	r18, Y+6	; 0x06
     3fa:	3f 81       	ldd	r19, Y+7	; 0x07
     3fc:	2e 5f       	subi	r18, 0xFE	; 254
     3fe:	3f 4f       	sbci	r19, 0xFF	; 255
     400:	fc 01       	movw	r30, r24
     402:	33 83       	std	Z+3, r19	; 0x03
     404:	22 83       	std	Z+2, r18	; 0x02
     406:	8e 81       	ldd	r24, Y+6	; 0x06
     408:	9f 81       	ldd	r25, Y+7	; 0x07
     40a:	9c 01       	movw	r18, r24
     40c:	2e 5f       	subi	r18, 0xFE	; 254
     40e:	3f 4f       	sbci	r19, 0xFF	; 255
     410:	8e 85       	ldd	r24, Y+14	; 0x0e
     412:	9f 85       	ldd	r25, Y+15	; 0x0f
     414:	fc 01       	movw	r30, r24
     416:	35 83       	std	Z+5, r19	; 0x05
     418:	24 83       	std	Z+4, r18	; 0x04
     41a:	8e 81       	ldd	r24, Y+6	; 0x06
     41c:	9f 81       	ldd	r25, Y+7	; 0x07
     41e:	fc 01       	movw	r30, r24
     420:	86 89       	ldd	r24, Z+22	; 0x16
     422:	28 2f       	mov	r18, r24
     424:	30 e0       	ldi	r19, 0x00	; 0
     426:	c9 01       	movw	r24, r18
     428:	88 0f       	add	r24, r24
     42a:	99 1f       	adc	r25, r25
     42c:	88 0f       	add	r24, r24
     42e:	99 1f       	adc	r25, r25
     430:	88 0f       	add	r24, r24
     432:	99 1f       	adc	r25, r25
     434:	82 0f       	add	r24, r18
     436:	93 1f       	adc	r25, r19
     438:	9c 01       	movw	r18, r24
     43a:	20 52       	subi	r18, 0x20	; 32
     43c:	3f 4f       	sbci	r19, 0xFF	; 255
     43e:	8e 81       	ldd	r24, Y+6	; 0x06
     440:	9f 81       	ldd	r25, Y+7	; 0x07
     442:	fc 01       	movw	r30, r24
     444:	33 87       	std	Z+11, r19	; 0x0b
     446:	22 87       	std	Z+10, r18	; 0x0a
     448:	8e 81       	ldd	r24, Y+6	; 0x06
     44a:	9f 81       	ldd	r25, Y+7	; 0x07
     44c:	fc 01       	movw	r30, r24
     44e:	86 89       	ldd	r24, Z+22	; 0x16
     450:	28 2f       	mov	r18, r24
     452:	30 e0       	ldi	r19, 0x00	; 0
     454:	c9 01       	movw	r24, r18
     456:	88 0f       	add	r24, r24
     458:	99 1f       	adc	r25, r25
     45a:	88 0f       	add	r24, r24
     45c:	99 1f       	adc	r25, r25
     45e:	88 0f       	add	r24, r24
     460:	99 1f       	adc	r25, r25
     462:	82 0f       	add	r24, r18
     464:	93 1f       	adc	r25, r19
     466:	80 52       	subi	r24, 0x20	; 32
     468:	9f 4f       	sbci	r25, 0xFF	; 255
     46a:	fc 01       	movw	r30, r24
     46c:	80 81       	ld	r24, Z
     46e:	41 e0       	ldi	r20, 0x01	; 1
     470:	48 0f       	add	r20, r24
     472:	c9 01       	movw	r24, r18
     474:	88 0f       	add	r24, r24
     476:	99 1f       	adc	r25, r25
     478:	88 0f       	add	r24, r24
     47a:	99 1f       	adc	r25, r25
     47c:	88 0f       	add	r24, r24
     47e:	99 1f       	adc	r25, r25
     480:	82 0f       	add	r24, r18
     482:	93 1f       	adc	r25, r19
     484:	80 52       	subi	r24, 0x20	; 32
     486:	9f 4f       	sbci	r25, 0xFF	; 255
     488:	fc 01       	movw	r30, r24
     48a:	40 83       	st	Z, r20
     48c:	8e 81       	ldd	r24, Y+6	; 0x06
     48e:	9f 81       	ldd	r25, Y+7	; 0x07
     490:	fc 01       	movw	r30, r24
     492:	26 89       	ldd	r18, Z+22	; 0x16
     494:	80 91 de 00 	lds	r24, 0x00DE	; 0x8000de <__data_end>
     498:	90 91 df 00 	lds	r25, 0x00DF	; 0x8000df <__data_end+0x1>
     49c:	fc 01       	movw	r30, r24
     49e:	86 89       	ldd	r24, Z+22	; 0x16
     4a0:	28 17       	cp	r18, r24
     4a2:	08 f4       	brcc	.+2      	; 0x4a6 <__EEPROM_REGION_LENGTH__+0xa6>
     4a4:	ad ce       	rjmp	.-678    	; 0x200 <xTaskIncrementTick+0x8c>
     4a6:	81 e0       	ldi	r24, 0x01	; 1
     4a8:	89 83       	std	Y+1, r24	; 0x01
     4aa:	aa ce       	rjmp	.-684    	; 0x200 <xTaskIncrementTick+0x8c>
     4ac:	80 91 de 00 	lds	r24, 0x00DE	; 0x8000de <__data_end>
     4b0:	90 91 df 00 	lds	r25, 0x00DF	; 0x8000df <__data_end+0x1>
     4b4:	fc 01       	movw	r30, r24
     4b6:	86 89       	ldd	r24, Z+22	; 0x16
     4b8:	28 2f       	mov	r18, r24
     4ba:	30 e0       	ldi	r19, 0x00	; 0
     4bc:	c9 01       	movw	r24, r18
     4be:	88 0f       	add	r24, r24
     4c0:	99 1f       	adc	r25, r25
     4c2:	88 0f       	add	r24, r24
     4c4:	99 1f       	adc	r25, r25
     4c6:	88 0f       	add	r24, r24
     4c8:	99 1f       	adc	r25, r25
     4ca:	82 0f       	add	r24, r18
     4cc:	93 1f       	adc	r25, r19
     4ce:	80 52       	subi	r24, 0x20	; 32
     4d0:	9f 4f       	sbci	r25, 0xFF	; 255
     4d2:	fc 01       	movw	r30, r24
     4d4:	80 81       	ld	r24, Z
     4d6:	82 30       	cpi	r24, 0x02	; 2
     4d8:	10 f0       	brcs	.+4      	; 0x4de <__EEPROM_REGION_LENGTH__+0xde>
     4da:	81 e0       	ldi	r24, 0x01	; 1
     4dc:	89 83       	std	Y+1, r24	; 0x01
     4de:	80 91 0d 01 	lds	r24, 0x010D	; 0x80010d <xYieldPending>
     4e2:	88 23       	and	r24, r24
     4e4:	61 f0       	breq	.+24     	; 0x4fe <__EEPROM_REGION_LENGTH__+0xfe>
     4e6:	81 e0       	ldi	r24, 0x01	; 1
     4e8:	89 83       	std	Y+1, r24	; 0x01
     4ea:	09 c0       	rjmp	.+18     	; 0x4fe <__EEPROM_REGION_LENGTH__+0xfe>
     4ec:	80 91 0b 01 	lds	r24, 0x010B	; 0x80010b <xPendedTicks>
     4f0:	90 91 0c 01 	lds	r25, 0x010C	; 0x80010c <xPendedTicks+0x1>
     4f4:	01 96       	adiw	r24, 0x01	; 1
     4f6:	90 93 0c 01 	sts	0x010C, r25	; 0x80010c <xPendedTicks+0x1>
     4fa:	80 93 0b 01 	sts	0x010B, r24	; 0x80010b <xPendedTicks>
     4fe:	89 81       	ldd	r24, Y+1	; 0x01
     500:	2f 96       	adiw	r28, 0x0f	; 15
     502:	0f b6       	in	r0, 0x3f	; 63
     504:	f8 94       	cli
     506:	de bf       	out	0x3e, r29	; 62
     508:	0f be       	out	0x3f, r0	; 63
     50a:	cd bf       	out	0x3d, r28	; 61
     50c:	df 91       	pop	r29
     50e:	cf 91       	pop	r28
     510:	08 95       	ret

00000512 <vTaskSwitchContext>:
     512:	cf 93       	push	r28
     514:	df 93       	push	r29
     516:	00 d0       	rcall	.+0      	; 0x518 <vTaskSwitchContext+0x6>
     518:	1f 92       	push	r1
     51a:	cd b7       	in	r28, 0x3d	; 61
     51c:	de b7       	in	r29, 0x3e	; 62
     51e:	80 91 11 01 	lds	r24, 0x0111	; 0x800111 <uxSchedulerSuspended>
     522:	88 23       	and	r24, r24
     524:	21 f0       	breq	.+8      	; 0x52e <vTaskSwitchContext+0x1c>
     526:	81 e0       	ldi	r24, 0x01	; 1
     528:	80 93 0d 01 	sts	0x010D, r24	; 0x80010d <xYieldPending>
     52c:	5f c0       	rjmp	.+190    	; 0x5ec <vTaskSwitchContext+0xda>
     52e:	10 92 0d 01 	sts	0x010D, r1	; 0x80010d <xYieldPending>
     532:	80 91 0a 01 	lds	r24, 0x010A	; 0x80010a <uxTopReadyPriority>
     536:	89 83       	std	Y+1, r24	; 0x01
     538:	03 c0       	rjmp	.+6      	; 0x540 <vTaskSwitchContext+0x2e>
     53a:	89 81       	ldd	r24, Y+1	; 0x01
     53c:	81 50       	subi	r24, 0x01	; 1
     53e:	89 83       	std	Y+1, r24	; 0x01
     540:	89 81       	ldd	r24, Y+1	; 0x01
     542:	28 2f       	mov	r18, r24
     544:	30 e0       	ldi	r19, 0x00	; 0
     546:	c9 01       	movw	r24, r18
     548:	88 0f       	add	r24, r24
     54a:	99 1f       	adc	r25, r25
     54c:	88 0f       	add	r24, r24
     54e:	99 1f       	adc	r25, r25
     550:	88 0f       	add	r24, r24
     552:	99 1f       	adc	r25, r25
     554:	82 0f       	add	r24, r18
     556:	93 1f       	adc	r25, r19
     558:	80 52       	subi	r24, 0x20	; 32
     55a:	9f 4f       	sbci	r25, 0xFF	; 255
     55c:	fc 01       	movw	r30, r24
     55e:	80 81       	ld	r24, Z
     560:	88 23       	and	r24, r24
     562:	59 f3       	breq	.-42     	; 0x53a <vTaskSwitchContext+0x28>
     564:	89 81       	ldd	r24, Y+1	; 0x01
     566:	28 2f       	mov	r18, r24
     568:	30 e0       	ldi	r19, 0x00	; 0
     56a:	c9 01       	movw	r24, r18
     56c:	88 0f       	add	r24, r24
     56e:	99 1f       	adc	r25, r25
     570:	88 0f       	add	r24, r24
     572:	99 1f       	adc	r25, r25
     574:	88 0f       	add	r24, r24
     576:	99 1f       	adc	r25, r25
     578:	82 0f       	add	r24, r18
     57a:	93 1f       	adc	r25, r19
     57c:	80 52       	subi	r24, 0x20	; 32
     57e:	9f 4f       	sbci	r25, 0xFF	; 255
     580:	9b 83       	std	Y+3, r25	; 0x03
     582:	8a 83       	std	Y+2, r24	; 0x02
     584:	8a 81       	ldd	r24, Y+2	; 0x02
     586:	9b 81       	ldd	r25, Y+3	; 0x03
     588:	fc 01       	movw	r30, r24
     58a:	81 81       	ldd	r24, Z+1	; 0x01
     58c:	92 81       	ldd	r25, Z+2	; 0x02
     58e:	fc 01       	movw	r30, r24
     590:	22 81       	ldd	r18, Z+2	; 0x02
     592:	33 81       	ldd	r19, Z+3	; 0x03
     594:	8a 81       	ldd	r24, Y+2	; 0x02
     596:	9b 81       	ldd	r25, Y+3	; 0x03
     598:	fc 01       	movw	r30, r24
     59a:	32 83       	std	Z+2, r19	; 0x02
     59c:	21 83       	std	Z+1, r18	; 0x01
     59e:	8a 81       	ldd	r24, Y+2	; 0x02
     5a0:	9b 81       	ldd	r25, Y+3	; 0x03
     5a2:	fc 01       	movw	r30, r24
     5a4:	21 81       	ldd	r18, Z+1	; 0x01
     5a6:	32 81       	ldd	r19, Z+2	; 0x02
     5a8:	8a 81       	ldd	r24, Y+2	; 0x02
     5aa:	9b 81       	ldd	r25, Y+3	; 0x03
     5ac:	03 96       	adiw	r24, 0x03	; 3
     5ae:	28 17       	cp	r18, r24
     5b0:	39 07       	cpc	r19, r25
     5b2:	69 f4       	brne	.+26     	; 0x5ce <vTaskSwitchContext+0xbc>
     5b4:	8a 81       	ldd	r24, Y+2	; 0x02
     5b6:	9b 81       	ldd	r25, Y+3	; 0x03
     5b8:	fc 01       	movw	r30, r24
     5ba:	81 81       	ldd	r24, Z+1	; 0x01
     5bc:	92 81       	ldd	r25, Z+2	; 0x02
     5be:	fc 01       	movw	r30, r24
     5c0:	22 81       	ldd	r18, Z+2	; 0x02
     5c2:	33 81       	ldd	r19, Z+3	; 0x03
     5c4:	8a 81       	ldd	r24, Y+2	; 0x02
     5c6:	9b 81       	ldd	r25, Y+3	; 0x03
     5c8:	fc 01       	movw	r30, r24
     5ca:	32 83       	std	Z+2, r19	; 0x02
     5cc:	21 83       	std	Z+1, r18	; 0x01
     5ce:	8a 81       	ldd	r24, Y+2	; 0x02
     5d0:	9b 81       	ldd	r25, Y+3	; 0x03
     5d2:	fc 01       	movw	r30, r24
     5d4:	81 81       	ldd	r24, Z+1	; 0x01
     5d6:	92 81       	ldd	r25, Z+2	; 0x02
     5d8:	fc 01       	movw	r30, r24
     5da:	86 81       	ldd	r24, Z+6	; 0x06
     5dc:	97 81       	ldd	r25, Z+7	; 0x07
     5de:	90 93 df 00 	sts	0x00DF, r25	; 0x8000df <__data_end+0x1>
     5e2:	80 93 de 00 	sts	0x00DE, r24	; 0x8000de <__data_end>
     5e6:	89 81       	ldd	r24, Y+1	; 0x01
     5e8:	80 93 0a 01 	sts	0x010A, r24	; 0x80010a <uxTopReadyPriority>
     5ec:	00 00       	nop
     5ee:	0f 90       	pop	r0
     5f0:	0f 90       	pop	r0
     5f2:	0f 90       	pop	r0
     5f4:	df 91       	pop	r29
     5f6:	cf 91       	pop	r28
     5f8:	08 95       	ret

000005fa <prvResetNextTaskUnblockTime>:

#endif /* INCLUDE_vTaskDelete */
/*-----------------------------------------------------------*/

static void prvResetNextTaskUnblockTime( void )
{
     5fa:	cf 93       	push	r28
     5fc:	df 93       	push	r29
     5fe:	cd b7       	in	r28, 0x3d	; 61
     600:	de b7       	in	r29, 0x3e	; 62
    if( listLIST_IS_EMPTY( pxDelayedTaskList ) != pdFALSE )
     602:	80 91 04 01 	lds	r24, 0x0104	; 0x800104 <pxDelayedTaskList>
     606:	90 91 05 01 	lds	r25, 0x0105	; 0x800105 <pxDelayedTaskList+0x1>
     60a:	fc 01       	movw	r30, r24
     60c:	80 81       	ld	r24, Z
     60e:	88 23       	and	r24, r24
     610:	39 f4       	brne	.+14     	; 0x620 <prvResetNextTaskUnblockTime+0x26>
    {
        /* The new current delayed list is empty.  Set xNextTaskUnblockTime to
         * the maximum possible value so it is  extremely unlikely that the
         * if( xTickCount >= xNextTaskUnblockTime ) test will pass until
         * there is an item in the delayed list. */
        xNextTaskUnblockTime = portMAX_DELAY;
     612:	8f ef       	ldi	r24, 0xFF	; 255
     614:	9f ef       	ldi	r25, 0xFF	; 255
     616:	90 93 10 01 	sts	0x0110, r25	; 0x800110 <xNextTaskUnblockTime+0x1>
     61a:	80 93 0f 01 	sts	0x010F, r24	; 0x80010f <xNextTaskUnblockTime>
         * the item at the head of the delayed list.  This is the time at
         * which the task at the head of the delayed list should be removed
         * from the Blocked state. */
        xNextTaskUnblockTime = listGET_ITEM_VALUE_OF_HEAD_ENTRY( pxDelayedTaskList );
    }
}
     61e:	0e c0       	rjmp	.+28     	; 0x63c <prvResetNextTaskUnblockTime+0x42>
    {
        /* The new current delayed list is not empty, get the value of
         * the item at the head of the delayed list.  This is the time at
         * which the task at the head of the delayed list should be removed
         * from the Blocked state. */
        xNextTaskUnblockTime = listGET_ITEM_VALUE_OF_HEAD_ENTRY( pxDelayedTaskList );
     620:	80 91 04 01 	lds	r24, 0x0104	; 0x800104 <pxDelayedTaskList>
     624:	90 91 05 01 	lds	r25, 0x0105	; 0x800105 <pxDelayedTaskList+0x1>
     628:	fc 01       	movw	r30, r24
     62a:	85 81       	ldd	r24, Z+5	; 0x05
     62c:	96 81       	ldd	r25, Z+6	; 0x06
     62e:	fc 01       	movw	r30, r24
     630:	80 81       	ld	r24, Z
     632:	91 81       	ldd	r25, Z+1	; 0x01
     634:	90 93 10 01 	sts	0x0110, r25	; 0x800110 <xNextTaskUnblockTime+0x1>
     638:	80 93 0f 01 	sts	0x010F, r24	; 0x80010f <xNextTaskUnblockTime>
    }
}
     63c:	00 00       	nop
     63e:	df 91       	pop	r29
     640:	cf 91       	pop	r28
     642:	08 95       	ret

00000644 <LCD_SendCommand>:
/*Externed global variables*/
extern const STR_LCD_config_t gastr_LCD_Config[LCD_NUMBER];
extern const STR_LCD_8_config_t gastr_LCD_8_Config[LCD_NUMBER];
/*functions Implementations*/
ERROR_STATE_t LCD_SendCommand(uint8_t CMD)
{
     644:	cf 93       	push	r28
     646:	df 93       	push	r29
     648:	00 d0       	rcall	.+0      	; 0x64a <LCD_SendCommand+0x6>
     64a:	1f 92       	push	r1
     64c:	cd b7       	in	r28, 0x3d	; 61
     64e:	de b7       	in	r29, 0x3e	; 62
     650:	8b 83       	std	Y+3, r24	; 0x03
	/*function starting*/
	uint8_t ErrRetVal = OperationStarted;
     652:	8f ef       	ldi	r24, 0xFF	; 255
     654:	89 83       	std	Y+1, r24	; 0x01
	/*setting the functions state*/
	uint8_t static State = OperationStarted;
	/*declaring a variable for the timer return*/
	uint8_t TimerRetVal = 1;
     656:	81 e0       	ldi	r24, 0x01	; 1
     658:	8a 83       	std	Y+2, r24	; 0x02
	}
	/************************************************************************/
	/*						IF LCD is IN 8_BIT MODE                         */
	/************************************************************************/
	#else
	switch (State)
     65a:	80 91 60 00 	lds	r24, 0x0060	; 0x800060 <__DATA_REGION_ORIGIN__>
     65e:	88 2f       	mov	r24, r24
     660:	90 e0       	ldi	r25, 0x00	; 0
     662:	85 31       	cpi	r24, 0x15	; 21
     664:	91 05       	cpc	r25, r1
     666:	09 f4       	brne	.+2      	; 0x66a <LCD_SendCommand+0x26>
     668:	d9 c0       	rjmp	.+434    	; 0x81c <__DATA_REGION_LENGTH__+0x1c>
     66a:	8f 3f       	cpi	r24, 0xFF	; 255
     66c:	91 05       	cpc	r25, r1
     66e:	21 f0       	breq	.+8      	; 0x678 <LCD_SendCommand+0x34>
     670:	44 97       	sbiw	r24, 0x14	; 20
     672:	09 f4       	brne	.+2      	; 0x676 <LCD_SendCommand+0x32>
     674:	af c0       	rjmp	.+350    	; 0x7d4 <LCD_SendCommand+0x190>
     676:	ec c0       	rjmp	.+472    	; 0x850 <__DATA_REGION_LENGTH__+0x50>
	{
		case OperationStarted:
			/*sending control signals with configurations of selection of control reg. and write process*/
			DIO_WritePin(gastr_LCD_Config[LCD_Channel_0].u8_LCD_Port, gastr_LCD_Config[LCD_Channel_0].u8_LCD_Rs, PIN_LOW);
     678:	90 91 c0 00 	lds	r25, 0x00C0	; 0x8000c0 <gastr_LCD_Config+0x1>
     67c:	80 91 bf 00 	lds	r24, 0x00BF	; 0x8000bf <gastr_LCD_Config>
     680:	40 e0       	ldi	r20, 0x00	; 0
     682:	69 2f       	mov	r22, r25
     684:	0e 94 af 07 	call	0xf5e	; 0xf5e <DIO_WritePin>
			DIO_WritePin(gastr_LCD_Config[LCD_Channel_0].u8_LCD_Port, gastr_LCD_Config[LCD_Channel_0].u8_LCD_Rw, PIN_LOW);
     688:	90 91 c1 00 	lds	r25, 0x00C1	; 0x8000c1 <gastr_LCD_Config+0x2>
     68c:	80 91 bf 00 	lds	r24, 0x00BF	; 0x8000bf <gastr_LCD_Config>
     690:	40 e0       	ldi	r20, 0x00	; 0
     692:	69 2f       	mov	r22, r25
     694:	0e 94 af 07 	call	0xf5e	; 0xf5e <DIO_WritePin>
			/*Setting the lcd pins*/
			DIO_WritePin(gastr_LCD_8_Config[LCD_Channel_0].u8_LCD_DATA_Port,gastr_LCD_8_Config[LCD_Channel_0].u8_LCD_D0,READ_BIT(CMD,BIT_0));
     698:	8b 81       	ldd	r24, Y+3	; 0x03
     69a:	28 2f       	mov	r18, r24
     69c:	21 70       	andi	r18, 0x01	; 1
     69e:	90 91 d3 00 	lds	r25, 0x00D3	; 0x8000d3 <gastr_LCD_8_Config+0xc>
     6a2:	80 91 c8 00 	lds	r24, 0x00C8	; 0x8000c8 <gastr_LCD_8_Config+0x1>
     6a6:	42 2f       	mov	r20, r18
     6a8:	69 2f       	mov	r22, r25
     6aa:	0e 94 af 07 	call	0xf5e	; 0xf5e <DIO_WritePin>
			DIO_WritePin(gastr_LCD_8_Config[LCD_Channel_0].u8_LCD_DATA_Port,gastr_LCD_8_Config[LCD_Channel_0].u8_LCD_D1,READ_BIT(CMD,BIT_1));
     6ae:	8b 81       	ldd	r24, Y+3	; 0x03
     6b0:	88 2f       	mov	r24, r24
     6b2:	90 e0       	ldi	r25, 0x00	; 0
     6b4:	82 70       	andi	r24, 0x02	; 2
     6b6:	99 27       	eor	r25, r25
     6b8:	95 95       	asr	r25
     6ba:	87 95       	ror	r24
     6bc:	28 2f       	mov	r18, r24
     6be:	90 91 d2 00 	lds	r25, 0x00D2	; 0x8000d2 <gastr_LCD_8_Config+0xb>
     6c2:	80 91 c8 00 	lds	r24, 0x00C8	; 0x8000c8 <gastr_LCD_8_Config+0x1>
     6c6:	42 2f       	mov	r20, r18
     6c8:	69 2f       	mov	r22, r25
     6ca:	0e 94 af 07 	call	0xf5e	; 0xf5e <DIO_WritePin>
			DIO_WritePin(gastr_LCD_8_Config[LCD_Channel_0].u8_LCD_DATA_Port,gastr_LCD_8_Config[LCD_Channel_0].u8_LCD_D2,READ_BIT(CMD,BIT_2));
     6ce:	8b 81       	ldd	r24, Y+3	; 0x03
     6d0:	88 2f       	mov	r24, r24
     6d2:	90 e0       	ldi	r25, 0x00	; 0
     6d4:	84 70       	andi	r24, 0x04	; 4
     6d6:	99 27       	eor	r25, r25
     6d8:	95 95       	asr	r25
     6da:	87 95       	ror	r24
     6dc:	95 95       	asr	r25
     6de:	87 95       	ror	r24
     6e0:	28 2f       	mov	r18, r24
     6e2:	90 91 d1 00 	lds	r25, 0x00D1	; 0x8000d1 <gastr_LCD_8_Config+0xa>
     6e6:	80 91 c8 00 	lds	r24, 0x00C8	; 0x8000c8 <gastr_LCD_8_Config+0x1>
     6ea:	42 2f       	mov	r20, r18
     6ec:	69 2f       	mov	r22, r25
     6ee:	0e 94 af 07 	call	0xf5e	; 0xf5e <DIO_WritePin>
			DIO_WritePin(gastr_LCD_8_Config[LCD_Channel_0].u8_LCD_DATA_Port,gastr_LCD_8_Config[LCD_Channel_0].u8_LCD_D3,READ_BIT(CMD,BIT_3));
     6f2:	8b 81       	ldd	r24, Y+3	; 0x03
     6f4:	88 2f       	mov	r24, r24
     6f6:	90 e0       	ldi	r25, 0x00	; 0
     6f8:	88 70       	andi	r24, 0x08	; 8
     6fa:	99 27       	eor	r25, r25
     6fc:	95 95       	asr	r25
     6fe:	87 95       	ror	r24
     700:	95 95       	asr	r25
     702:	87 95       	ror	r24
     704:	95 95       	asr	r25
     706:	87 95       	ror	r24
     708:	28 2f       	mov	r18, r24
     70a:	90 91 d0 00 	lds	r25, 0x00D0	; 0x8000d0 <gastr_LCD_8_Config+0x9>
     70e:	80 91 c8 00 	lds	r24, 0x00C8	; 0x8000c8 <gastr_LCD_8_Config+0x1>
     712:	42 2f       	mov	r20, r18
     714:	69 2f       	mov	r22, r25
     716:	0e 94 af 07 	call	0xf5e	; 0xf5e <DIO_WritePin>
			DIO_WritePin(gastr_LCD_8_Config[LCD_Channel_0].u8_LCD_DATA_Port,gastr_LCD_8_Config[LCD_Channel_0].u8_LCD_D4,READ_BIT(CMD,BIT_4));
     71a:	8b 81       	ldd	r24, Y+3	; 0x03
     71c:	88 2f       	mov	r24, r24
     71e:	90 e0       	ldi	r25, 0x00	; 0
     720:	80 71       	andi	r24, 0x10	; 16
     722:	99 27       	eor	r25, r25
     724:	95 95       	asr	r25
     726:	87 95       	ror	r24
     728:	95 95       	asr	r25
     72a:	87 95       	ror	r24
     72c:	95 95       	asr	r25
     72e:	87 95       	ror	r24
     730:	95 95       	asr	r25
     732:	87 95       	ror	r24
     734:	28 2f       	mov	r18, r24
     736:	90 91 cf 00 	lds	r25, 0x00CF	; 0x8000cf <gastr_LCD_8_Config+0x8>
     73a:	80 91 c8 00 	lds	r24, 0x00C8	; 0x8000c8 <gastr_LCD_8_Config+0x1>
     73e:	42 2f       	mov	r20, r18
     740:	69 2f       	mov	r22, r25
     742:	0e 94 af 07 	call	0xf5e	; 0xf5e <DIO_WritePin>
			DIO_WritePin(gastr_LCD_8_Config[LCD_Channel_0].u8_LCD_DATA_Port,gastr_LCD_8_Config[LCD_Channel_0].u8_LCD_D5,READ_BIT(CMD,BIT_5));
     746:	8b 81       	ldd	r24, Y+3	; 0x03
     748:	88 2f       	mov	r24, r24
     74a:	90 e0       	ldi	r25, 0x00	; 0
     74c:	80 72       	andi	r24, 0x20	; 32
     74e:	99 27       	eor	r25, r25
     750:	95 95       	asr	r25
     752:	87 95       	ror	r24
     754:	95 95       	asr	r25
     756:	87 95       	ror	r24
     758:	95 95       	asr	r25
     75a:	87 95       	ror	r24
     75c:	95 95       	asr	r25
     75e:	87 95       	ror	r24
     760:	95 95       	asr	r25
     762:	87 95       	ror	r24
     764:	28 2f       	mov	r18, r24
     766:	90 91 ce 00 	lds	r25, 0x00CE	; 0x8000ce <gastr_LCD_8_Config+0x7>
     76a:	80 91 c8 00 	lds	r24, 0x00C8	; 0x8000c8 <gastr_LCD_8_Config+0x1>
     76e:	42 2f       	mov	r20, r18
     770:	69 2f       	mov	r22, r25
     772:	0e 94 af 07 	call	0xf5e	; 0xf5e <DIO_WritePin>
			DIO_WritePin(gastr_LCD_8_Config[LCD_Channel_0].u8_LCD_DATA_Port,gastr_LCD_8_Config[LCD_Channel_0].u8_LCD_D6,READ_BIT(CMD,BIT_6));
     776:	8b 81       	ldd	r24, Y+3	; 0x03
     778:	88 2f       	mov	r24, r24
     77a:	90 e0       	ldi	r25, 0x00	; 0
     77c:	80 74       	andi	r24, 0x40	; 64
     77e:	99 27       	eor	r25, r25
     780:	08 2e       	mov	r0, r24
     782:	89 2f       	mov	r24, r25
     784:	00 0c       	add	r0, r0
     786:	88 1f       	adc	r24, r24
     788:	99 0b       	sbc	r25, r25
     78a:	00 0c       	add	r0, r0
     78c:	88 1f       	adc	r24, r24
     78e:	99 1f       	adc	r25, r25
     790:	28 2f       	mov	r18, r24
     792:	90 91 cd 00 	lds	r25, 0x00CD	; 0x8000cd <gastr_LCD_8_Config+0x6>
     796:	80 91 c8 00 	lds	r24, 0x00C8	; 0x8000c8 <gastr_LCD_8_Config+0x1>
     79a:	42 2f       	mov	r20, r18
     79c:	69 2f       	mov	r22, r25
     79e:	0e 94 af 07 	call	0xf5e	; 0xf5e <DIO_WritePin>
			DIO_WritePin(gastr_LCD_8_Config[LCD_Channel_0].u8_LCD_DATA_Port,gastr_LCD_8_Config[LCD_Channel_0].u8_LCD_D7,READ_BIT(CMD,BIT_7));
     7a2:	8b 81       	ldd	r24, Y+3	; 0x03
     7a4:	28 2f       	mov	r18, r24
     7a6:	22 1f       	adc	r18, r18
     7a8:	22 27       	eor	r18, r18
     7aa:	22 1f       	adc	r18, r18
     7ac:	90 91 cc 00 	lds	r25, 0x00CC	; 0x8000cc <gastr_LCD_8_Config+0x5>
     7b0:	80 91 c8 00 	lds	r24, 0x00C8	; 0x8000c8 <gastr_LCD_8_Config+0x1>
     7b4:	42 2f       	mov	r20, r18
     7b6:	69 2f       	mov	r22, r25
     7b8:	0e 94 af 07 	call	0xf5e	; 0xf5e <DIO_WritePin>
			/*writing data to the register by pulling the enable pin high for 1 Us*/
			DIO_WritePin(gastr_LCD_Config[LCD_Channel_0].u8_LCD_Port, gastr_LCD_Config[LCD_Channel_0].u8_LCD_En, PIN_HIGH);
     7bc:	90 91 c2 00 	lds	r25, 0x00C2	; 0x8000c2 <gastr_LCD_Config+0x3>
     7c0:	80 91 bf 00 	lds	r24, 0x00BF	; 0x8000bf <gastr_LCD_Config>
     7c4:	41 e0       	ldi	r20, 0x01	; 1
     7c6:	69 2f       	mov	r22, r25
     7c8:	0e 94 af 07 	call	0xf5e	; 0xf5e <DIO_WritePin>
			State = CMD_Sending;
     7cc:	84 e1       	ldi	r24, 0x14	; 20
     7ce:	80 93 60 00 	sts	0x0060, r24	; 0x800060 <__DATA_REGION_ORIGIN__>
			break;
     7d2:	44 c0       	rjmp	.+136    	; 0x85c <__DATA_REGION_LENGTH__+0x5c>
		case CMD_Sending:
			/*start timer delay in background*/
			if(TIMER_E_DELAY_EMPTY == TIM_DelayStatus(TIMER_2, (void (*)(void))LCD_SendCommand))
     7d4:	62 e2       	ldi	r22, 0x22	; 34
     7d6:	73 e0       	ldi	r23, 0x03	; 3
     7d8:	82 e0       	ldi	r24, 0x02	; 2
     7da:	0e 94 0a 0d 	call	0x1a14	; 0x1a14 <TIM_DelayStatus>
     7de:	8b 3f       	cpi	r24, 0xFB	; 251
     7e0:	d1 f5       	brne	.+116    	; 0x856 <__DATA_REGION_LENGTH__+0x56>
			{
				TIM_DelayUs(TIMER_2, 1,(void (*)(void)) LCD_SendCommand);
     7e2:	22 e2       	ldi	r18, 0x22	; 34
     7e4:	33 e0       	ldi	r19, 0x03	; 3
     7e6:	41 e0       	ldi	r20, 0x01	; 1
     7e8:	50 e0       	ldi	r21, 0x00	; 0
     7ea:	60 e0       	ldi	r22, 0x00	; 0
     7ec:	70 e0       	ldi	r23, 0x00	; 0
     7ee:	82 e0       	ldi	r24, 0x02	; 2
     7f0:	0e 94 b5 0b 	call	0x176a	; 0x176a <TIM_DelayUs>
				while(ERROR_OK != TIM_DelayStatus(TIMER_2, (void (*)(void))LCD_SendCommand));
     7f4:	00 00       	nop
     7f6:	62 e2       	ldi	r22, 0x22	; 34
     7f8:	73 e0       	ldi	r23, 0x03	; 3
     7fa:	82 e0       	ldi	r24, 0x02	; 2
     7fc:	0e 94 0a 0d 	call	0x1a14	; 0x1a14 <TIM_DelayStatus>
     800:	88 23       	and	r24, r24
     802:	c9 f7       	brne	.-14     	; 0x7f6 <LCD_SendCommand+0x1b2>
				/*if timer delay function finished correctly pull enable pin low*/
				DIO_WritePin(gastr_LCD_Config[LCD_Channel_0].u8_LCD_Port, gastr_LCD_Config[LCD_Channel_0].u8_LCD_En, PIN_LOW);
     804:	90 91 c2 00 	lds	r25, 0x00C2	; 0x8000c2 <gastr_LCD_Config+0x3>
     808:	80 91 bf 00 	lds	r24, 0x00BF	; 0x8000bf <gastr_LCD_Config>
     80c:	40 e0       	ldi	r20, 0x00	; 0
     80e:	69 2f       	mov	r22, r25
     810:	0e 94 af 07 	call	0xf5e	; 0xf5e <DIO_WritePin>
				/*update the function's state*/
				State = CMD_Sent;
     814:	85 e1       	ldi	r24, 0x15	; 21
     816:	80 93 60 00 	sts	0x0060, r24	; 0x800060 <__DATA_REGION_ORIGIN__>
			}
			break;
     81a:	1d c0       	rjmp	.+58     	; 0x856 <__DATA_REGION_LENGTH__+0x56>
		case CMD_Sent:
			/*start timer delay in background*/
			TimerRetVal = TIM_DelayStatus(TIMER_2, (void (*)(void))LCD_SendCommand);
     81c:	62 e2       	ldi	r22, 0x22	; 34
     81e:	73 e0       	ldi	r23, 0x03	; 3
     820:	82 e0       	ldi	r24, 0x02	; 2
     822:	0e 94 0a 0d 	call	0x1a14	; 0x1a14 <TIM_DelayStatus>
     826:	8a 83       	std	Y+2, r24	; 0x02
			if(TIMER_E_DELAY_EMPTY == TimerRetVal)
     828:	8a 81       	ldd	r24, Y+2	; 0x02
     82a:	8b 3f       	cpi	r24, 0xFB	; 251
     82c:	49 f4       	brne	.+18     	; 0x840 <__DATA_REGION_LENGTH__+0x40>
			{
				TIM_DelayMs(TIMER_2,2, (void (*)(void))LCD_SendCommand);
     82e:	22 e2       	ldi	r18, 0x22	; 34
     830:	33 e0       	ldi	r19, 0x03	; 3
     832:	42 e0       	ldi	r20, 0x02	; 2
     834:	50 e0       	ldi	r21, 0x00	; 0
     836:	60 e0       	ldi	r22, 0x00	; 0
     838:	70 e0       	ldi	r23, 0x00	; 0
     83a:	82 e0       	ldi	r24, 0x02	; 2
     83c:	0e 94 5a 0c 	call	0x18b4	; 0x18b4 <TIM_DelayMs>
			}
			if(TimerRetVal == ((uint8_t)ERROR_OK))
     840:	8a 81       	ldd	r24, Y+2	; 0x02
     842:	88 23       	and	r24, r24
     844:	51 f4       	brne	.+20     	; 0x85a <__DATA_REGION_LENGTH__+0x5a>
			{
				ErrRetVal = OperationSuccess;
     846:	19 82       	std	Y+1, r1	; 0x01
				State = OperationStarted;
     848:	8f ef       	ldi	r24, 0xFF	; 255
     84a:	80 93 60 00 	sts	0x0060, r24	; 0x800060 <__DATA_REGION_ORIGIN__>
			}
			break;
     84e:	05 c0       	rjmp	.+10     	; 0x85a <__DATA_REGION_LENGTH__+0x5a>
		default:
			ErrRetVal = OperationFail;
     850:	81 e0       	ldi	r24, 0x01	; 1
     852:	89 83       	std	Y+1, r24	; 0x01
			break;
     854:	03 c0       	rjmp	.+6      	; 0x85c <__DATA_REGION_LENGTH__+0x5c>
				/*if timer delay function finished correctly pull enable pin low*/
				DIO_WritePin(gastr_LCD_Config[LCD_Channel_0].u8_LCD_Port, gastr_LCD_Config[LCD_Channel_0].u8_LCD_En, PIN_LOW);
				/*update the function's state*/
				State = CMD_Sent;
			}
			break;
     856:	00 00       	nop
     858:	01 c0       	rjmp	.+2      	; 0x85c <__DATA_REGION_LENGTH__+0x5c>
			if(TimerRetVal == ((uint8_t)ERROR_OK))
			{
				ErrRetVal = OperationSuccess;
				State = OperationStarted;
			}
			break;
     85a:	00 00       	nop
			ErrRetVal = OperationFail;
			break;
	}
	#endif
	/*return from function*/
	return ErrRetVal;
     85c:	89 81       	ldd	r24, Y+1	; 0x01
}
     85e:	0f 90       	pop	r0
     860:	0f 90       	pop	r0
     862:	0f 90       	pop	r0
     864:	df 91       	pop	r29
     866:	cf 91       	pop	r28
     868:	08 95       	ret

0000086a <LCD_SendData>:
ERROR_STATE_t LCD_SendData(uint8_t Character)
{
     86a:	cf 93       	push	r28
     86c:	df 93       	push	r29
     86e:	00 d0       	rcall	.+0      	; 0x870 <LCD_SendData+0x6>
     870:	cd b7       	in	r28, 0x3d	; 61
     872:	de b7       	in	r29, 0x3e	; 62
     874:	8a 83       	std	Y+2, r24	; 0x02
	/*function starting*/
	uint8_t ErrRetVal = OperationStarted;
     876:	8f ef       	ldi	r24, 0xFF	; 255
     878:	89 83       	std	Y+1, r24	; 0x01
	}
	/************************************************************************/
	/*                                                                      */
	/************************************************************************/
	#else
	switch (State)
     87a:	80 91 61 00 	lds	r24, 0x0061	; 0x800061 <State.1749>
     87e:	88 2f       	mov	r24, r24
     880:	90 e0       	ldi	r25, 0x00	; 0
     882:	84 31       	cpi	r24, 0x14	; 20
     884:	91 05       	cpc	r25, r1
     886:	09 f4       	brne	.+2      	; 0x88a <LCD_SendData+0x20>
     888:	b2 c0       	rjmp	.+356    	; 0x9ee <LCD_SendData+0x184>
     88a:	8f 3f       	cpi	r24, 0xFF	; 255
     88c:	91 05       	cpc	r25, r1
     88e:	09 f0       	breq	.+2      	; 0x892 <LCD_SendData+0x28>
     890:	d3 c0       	rjmp	.+422    	; 0xa38 <LCD_SendData+0x1ce>
	{
		case OperationStarted:
			/*sending control signals with configurations of selection of control reg. and write process*/
			DIO_WritePin(gastr_LCD_8_Config[LCD_Channel_0].u8_LCD_CTRL_Port, gastr_LCD_8_Config[LCD_Channel_0].u8_LCD_Rs, PIN_HIGH);
     892:	90 91 c9 00 	lds	r25, 0x00C9	; 0x8000c9 <gastr_LCD_8_Config+0x2>
     896:	80 91 c7 00 	lds	r24, 0x00C7	; 0x8000c7 <gastr_LCD_8_Config>
     89a:	41 e0       	ldi	r20, 0x01	; 1
     89c:	69 2f       	mov	r22, r25
     89e:	0e 94 af 07 	call	0xf5e	; 0xf5e <DIO_WritePin>
			DIO_WritePin(gastr_LCD_8_Config[LCD_Channel_0].u8_LCD_CTRL_Port, gastr_LCD_8_Config[LCD_Channel_0].u8_LCD_Rw, PIN_LOW);
     8a2:	90 91 ca 00 	lds	r25, 0x00CA	; 0x8000ca <gastr_LCD_8_Config+0x3>
     8a6:	80 91 c7 00 	lds	r24, 0x00C7	; 0x8000c7 <gastr_LCD_8_Config>
     8aa:	40 e0       	ldi	r20, 0x00	; 0
     8ac:	69 2f       	mov	r22, r25
     8ae:	0e 94 af 07 	call	0xf5e	; 0xf5e <DIO_WritePin>
			/*Setting the lcd pins*/
			DIO_WritePin(gastr_LCD_8_Config[LCD_Channel_0].u8_LCD_DATA_Port,gastr_LCD_8_Config[LCD_Channel_0].u8_LCD_D0,READ_BIT(Character,BIT_0));
     8b2:	8a 81       	ldd	r24, Y+2	; 0x02
     8b4:	28 2f       	mov	r18, r24
     8b6:	21 70       	andi	r18, 0x01	; 1
     8b8:	90 91 d3 00 	lds	r25, 0x00D3	; 0x8000d3 <gastr_LCD_8_Config+0xc>
     8bc:	80 91 c8 00 	lds	r24, 0x00C8	; 0x8000c8 <gastr_LCD_8_Config+0x1>
     8c0:	42 2f       	mov	r20, r18
     8c2:	69 2f       	mov	r22, r25
     8c4:	0e 94 af 07 	call	0xf5e	; 0xf5e <DIO_WritePin>
			DIO_WritePin(gastr_LCD_8_Config[LCD_Channel_0].u8_LCD_DATA_Port,gastr_LCD_8_Config[LCD_Channel_0].u8_LCD_D1,READ_BIT(Character,BIT_1));
     8c8:	8a 81       	ldd	r24, Y+2	; 0x02
     8ca:	88 2f       	mov	r24, r24
     8cc:	90 e0       	ldi	r25, 0x00	; 0
     8ce:	82 70       	andi	r24, 0x02	; 2
     8d0:	99 27       	eor	r25, r25
     8d2:	95 95       	asr	r25
     8d4:	87 95       	ror	r24
     8d6:	28 2f       	mov	r18, r24
     8d8:	90 91 d2 00 	lds	r25, 0x00D2	; 0x8000d2 <gastr_LCD_8_Config+0xb>
     8dc:	80 91 c8 00 	lds	r24, 0x00C8	; 0x8000c8 <gastr_LCD_8_Config+0x1>
     8e0:	42 2f       	mov	r20, r18
     8e2:	69 2f       	mov	r22, r25
     8e4:	0e 94 af 07 	call	0xf5e	; 0xf5e <DIO_WritePin>
			DIO_WritePin(gastr_LCD_8_Config[LCD_Channel_0].u8_LCD_DATA_Port,gastr_LCD_8_Config[LCD_Channel_0].u8_LCD_D2,READ_BIT(Character,BIT_2));
     8e8:	8a 81       	ldd	r24, Y+2	; 0x02
     8ea:	88 2f       	mov	r24, r24
     8ec:	90 e0       	ldi	r25, 0x00	; 0
     8ee:	84 70       	andi	r24, 0x04	; 4
     8f0:	99 27       	eor	r25, r25
     8f2:	95 95       	asr	r25
     8f4:	87 95       	ror	r24
     8f6:	95 95       	asr	r25
     8f8:	87 95       	ror	r24
     8fa:	28 2f       	mov	r18, r24
     8fc:	90 91 d1 00 	lds	r25, 0x00D1	; 0x8000d1 <gastr_LCD_8_Config+0xa>
     900:	80 91 c8 00 	lds	r24, 0x00C8	; 0x8000c8 <gastr_LCD_8_Config+0x1>
     904:	42 2f       	mov	r20, r18
     906:	69 2f       	mov	r22, r25
     908:	0e 94 af 07 	call	0xf5e	; 0xf5e <DIO_WritePin>
			DIO_WritePin(gastr_LCD_8_Config[LCD_Channel_0].u8_LCD_DATA_Port,gastr_LCD_8_Config[LCD_Channel_0].u8_LCD_D3,READ_BIT(Character,BIT_3));
     90c:	8a 81       	ldd	r24, Y+2	; 0x02
     90e:	88 2f       	mov	r24, r24
     910:	90 e0       	ldi	r25, 0x00	; 0
     912:	88 70       	andi	r24, 0x08	; 8
     914:	99 27       	eor	r25, r25
     916:	95 95       	asr	r25
     918:	87 95       	ror	r24
     91a:	95 95       	asr	r25
     91c:	87 95       	ror	r24
     91e:	95 95       	asr	r25
     920:	87 95       	ror	r24
     922:	28 2f       	mov	r18, r24
     924:	90 91 d0 00 	lds	r25, 0x00D0	; 0x8000d0 <gastr_LCD_8_Config+0x9>
     928:	80 91 c8 00 	lds	r24, 0x00C8	; 0x8000c8 <gastr_LCD_8_Config+0x1>
     92c:	42 2f       	mov	r20, r18
     92e:	69 2f       	mov	r22, r25
     930:	0e 94 af 07 	call	0xf5e	; 0xf5e <DIO_WritePin>
			DIO_WritePin(gastr_LCD_8_Config[LCD_Channel_0].u8_LCD_DATA_Port,gastr_LCD_8_Config[LCD_Channel_0].u8_LCD_D4,READ_BIT(Character,BIT_4));
     934:	8a 81       	ldd	r24, Y+2	; 0x02
     936:	88 2f       	mov	r24, r24
     938:	90 e0       	ldi	r25, 0x00	; 0
     93a:	80 71       	andi	r24, 0x10	; 16
     93c:	99 27       	eor	r25, r25
     93e:	95 95       	asr	r25
     940:	87 95       	ror	r24
     942:	95 95       	asr	r25
     944:	87 95       	ror	r24
     946:	95 95       	asr	r25
     948:	87 95       	ror	r24
     94a:	95 95       	asr	r25
     94c:	87 95       	ror	r24
     94e:	28 2f       	mov	r18, r24
     950:	90 91 cf 00 	lds	r25, 0x00CF	; 0x8000cf <gastr_LCD_8_Config+0x8>
     954:	80 91 c8 00 	lds	r24, 0x00C8	; 0x8000c8 <gastr_LCD_8_Config+0x1>
     958:	42 2f       	mov	r20, r18
     95a:	69 2f       	mov	r22, r25
     95c:	0e 94 af 07 	call	0xf5e	; 0xf5e <DIO_WritePin>
			DIO_WritePin(gastr_LCD_8_Config[LCD_Channel_0].u8_LCD_DATA_Port,gastr_LCD_8_Config[LCD_Channel_0].u8_LCD_D5,READ_BIT(Character,BIT_5));
     960:	8a 81       	ldd	r24, Y+2	; 0x02
     962:	88 2f       	mov	r24, r24
     964:	90 e0       	ldi	r25, 0x00	; 0
     966:	80 72       	andi	r24, 0x20	; 32
     968:	99 27       	eor	r25, r25
     96a:	95 95       	asr	r25
     96c:	87 95       	ror	r24
     96e:	95 95       	asr	r25
     970:	87 95       	ror	r24
     972:	95 95       	asr	r25
     974:	87 95       	ror	r24
     976:	95 95       	asr	r25
     978:	87 95       	ror	r24
     97a:	95 95       	asr	r25
     97c:	87 95       	ror	r24
     97e:	28 2f       	mov	r18, r24
     980:	90 91 ce 00 	lds	r25, 0x00CE	; 0x8000ce <gastr_LCD_8_Config+0x7>
     984:	80 91 c8 00 	lds	r24, 0x00C8	; 0x8000c8 <gastr_LCD_8_Config+0x1>
     988:	42 2f       	mov	r20, r18
     98a:	69 2f       	mov	r22, r25
     98c:	0e 94 af 07 	call	0xf5e	; 0xf5e <DIO_WritePin>
			DIO_WritePin(gastr_LCD_8_Config[LCD_Channel_0].u8_LCD_DATA_Port,gastr_LCD_8_Config[LCD_Channel_0].u8_LCD_D6,READ_BIT(Character,BIT_6));
     990:	8a 81       	ldd	r24, Y+2	; 0x02
     992:	88 2f       	mov	r24, r24
     994:	90 e0       	ldi	r25, 0x00	; 0
     996:	80 74       	andi	r24, 0x40	; 64
     998:	99 27       	eor	r25, r25
     99a:	08 2e       	mov	r0, r24
     99c:	89 2f       	mov	r24, r25
     99e:	00 0c       	add	r0, r0
     9a0:	88 1f       	adc	r24, r24
     9a2:	99 0b       	sbc	r25, r25
     9a4:	00 0c       	add	r0, r0
     9a6:	88 1f       	adc	r24, r24
     9a8:	99 1f       	adc	r25, r25
     9aa:	28 2f       	mov	r18, r24
     9ac:	90 91 cd 00 	lds	r25, 0x00CD	; 0x8000cd <gastr_LCD_8_Config+0x6>
     9b0:	80 91 c8 00 	lds	r24, 0x00C8	; 0x8000c8 <gastr_LCD_8_Config+0x1>
     9b4:	42 2f       	mov	r20, r18
     9b6:	69 2f       	mov	r22, r25
     9b8:	0e 94 af 07 	call	0xf5e	; 0xf5e <DIO_WritePin>
			DIO_WritePin(gastr_LCD_8_Config[LCD_Channel_0].u8_LCD_DATA_Port,gastr_LCD_8_Config[LCD_Channel_0].u8_LCD_D7,READ_BIT(Character,BIT_7));
     9bc:	8a 81       	ldd	r24, Y+2	; 0x02
     9be:	28 2f       	mov	r18, r24
     9c0:	22 1f       	adc	r18, r18
     9c2:	22 27       	eor	r18, r18
     9c4:	22 1f       	adc	r18, r18
     9c6:	90 91 cc 00 	lds	r25, 0x00CC	; 0x8000cc <gastr_LCD_8_Config+0x5>
     9ca:	80 91 c8 00 	lds	r24, 0x00C8	; 0x8000c8 <gastr_LCD_8_Config+0x1>
     9ce:	42 2f       	mov	r20, r18
     9d0:	69 2f       	mov	r22, r25
     9d2:	0e 94 af 07 	call	0xf5e	; 0xf5e <DIO_WritePin>
			/*writing data to the register by pulling the enable pin high for 1 Us*/
			DIO_WritePin(gastr_LCD_Config[LCD_Channel_0].u8_LCD_Port, gastr_LCD_Config[LCD_Channel_0].u8_LCD_En, PIN_HIGH);
     9d6:	90 91 c2 00 	lds	r25, 0x00C2	; 0x8000c2 <gastr_LCD_Config+0x3>
     9da:	80 91 bf 00 	lds	r24, 0x00BF	; 0x8000bf <gastr_LCD_Config>
     9de:	41 e0       	ldi	r20, 0x01	; 1
     9e0:	69 2f       	mov	r22, r25
     9e2:	0e 94 af 07 	call	0xf5e	; 0xf5e <DIO_WritePin>
			State = CMD_Sending;
     9e6:	84 e1       	ldi	r24, 0x14	; 20
     9e8:	80 93 61 00 	sts	0x0061, r24	; 0x800061 <State.1749>
			break;
     9ec:	29 c0       	rjmp	.+82     	; 0xa40 <LCD_SendData+0x1d6>
		case CMD_Sending:
			/*start timer delay in background*/
			if(TIMER_E_DELAY_EMPTY == TIM_DelayStatus(TIMER_2, (void (*)(void))LCD_SendData))
     9ee:	65 e3       	ldi	r22, 0x35	; 53
     9f0:	74 e0       	ldi	r23, 0x04	; 4
     9f2:	82 e0       	ldi	r24, 0x02	; 2
     9f4:	0e 94 0a 0d 	call	0x1a14	; 0x1a14 <TIM_DelayStatus>
     9f8:	8b 3f       	cpi	r24, 0xFB	; 251
     9fa:	09 f5       	brne	.+66     	; 0xa3e <LCD_SendData+0x1d4>
			{
				TIM_DelayUs(TIMER_2, 1, (void (*)(void))LCD_SendData);
     9fc:	25 e3       	ldi	r18, 0x35	; 53
     9fe:	34 e0       	ldi	r19, 0x04	; 4
     a00:	41 e0       	ldi	r20, 0x01	; 1
     a02:	50 e0       	ldi	r21, 0x00	; 0
     a04:	60 e0       	ldi	r22, 0x00	; 0
     a06:	70 e0       	ldi	r23, 0x00	; 0
     a08:	82 e0       	ldi	r24, 0x02	; 2
     a0a:	0e 94 b5 0b 	call	0x176a	; 0x176a <TIM_DelayUs>
				while(ERROR_OK != TIM_DelayStatus(TIMER_2, (void (*)(void))LCD_SendData));
     a0e:	00 00       	nop
     a10:	65 e3       	ldi	r22, 0x35	; 53
     a12:	74 e0       	ldi	r23, 0x04	; 4
     a14:	82 e0       	ldi	r24, 0x02	; 2
     a16:	0e 94 0a 0d 	call	0x1a14	; 0x1a14 <TIM_DelayStatus>
     a1a:	88 23       	and	r24, r24
     a1c:	c9 f7       	brne	.-14     	; 0xa10 <LCD_SendData+0x1a6>
				/*if timer delay function finished correctly pull enable pin low*/
				DIO_WritePin(gastr_LCD_Config[LCD_Channel_0].u8_LCD_Port, gastr_LCD_Config[LCD_Channel_0].u8_LCD_En, PIN_LOW);
     a1e:	90 91 c2 00 	lds	r25, 0x00C2	; 0x8000c2 <gastr_LCD_Config+0x3>
     a22:	80 91 bf 00 	lds	r24, 0x00BF	; 0x8000bf <gastr_LCD_Config>
     a26:	40 e0       	ldi	r20, 0x00	; 0
     a28:	69 2f       	mov	r22, r25
     a2a:	0e 94 af 07 	call	0xf5e	; 0xf5e <DIO_WritePin>
				/*reset the function's state*/
				State = OperationStarted;
     a2e:	8f ef       	ldi	r24, 0xFF	; 255
     a30:	80 93 61 00 	sts	0x0061, r24	; 0x800061 <State.1749>
				/*process finished successfully*/
				ErrRetVal = OperationSuccess;
     a34:	19 82       	std	Y+1, r1	; 0x01
			}
			break;
     a36:	03 c0       	rjmp	.+6      	; 0xa3e <LCD_SendData+0x1d4>
		default:
		ErrRetVal = OperationFail;
     a38:	81 e0       	ldi	r24, 0x01	; 1
     a3a:	89 83       	std	Y+1, r24	; 0x01
		break;
     a3c:	01 c0       	rjmp	.+2      	; 0xa40 <LCD_SendData+0x1d6>
				/*reset the function's state*/
				State = OperationStarted;
				/*process finished successfully*/
				ErrRetVal = OperationSuccess;
			}
			break;
     a3e:	00 00       	nop
		ErrRetVal = OperationFail;
		break;
	}
	#endif
	/*return from function*/
	return ErrRetVal;
     a40:	89 81       	ldd	r24, Y+1	; 0x01

}
     a42:	0f 90       	pop	r0
     a44:	0f 90       	pop	r0
     a46:	df 91       	pop	r29
     a48:	cf 91       	pop	r28
     a4a:	08 95       	ret

00000a4c <LCD_Init>:
ERROR_STATE_t LCD_Init()
{
     a4c:	cf 93       	push	r28
     a4e:	df 93       	push	r29
     a50:	00 d0       	rcall	.+0      	; 0xa52 <LCD_Init+0x6>
     a52:	1f 92       	push	r1
     a54:	cd b7       	in	r28, 0x3d	; 61
     a56:	de b7       	in	r29, 0x3e	; 62
	/*function starting*/
	uint8_t ErrRetVal = OperationStarted;
     a58:	8f ef       	ldi	r24, 0xFF	; 255
     a5a:	89 83       	std	Y+1, r24	; 0x01
	/*setting the functions state*/
	uint8_t static State = OperationStarted;
	/*declaring a variable for the timer return*/
	uint8_t TimerRetVal = 1;
     a5c:	81 e0       	ldi	r24, 0x01	; 1
     a5e:	8a 83       	std	Y+2, r24	; 0x02
	uint8_t LCD_SendCommandRetVal = OperationStarted;
     a60:	8f ef       	ldi	r24, 0xFF	; 255
     a62:	8b 83       	std	Y+3, r24	; 0x03
	/************************************************************************/
	/*                                                                      */
	/************************************************************************/
	#else
	/*Starting the initialization sequence*/
	switch(State)
     a64:	80 91 62 00 	lds	r24, 0x0062	; 0x800062 <State.1763>
     a68:	88 2f       	mov	r24, r24
     a6a:	90 e0       	ldi	r25, 0x00	; 0
     a6c:	8b 30       	cpi	r24, 0x0B	; 11
     a6e:	91 05       	cpc	r25, r1
     a70:	09 f4       	brne	.+2      	; 0xa74 <LCD_Init+0x28>
     a72:	19 c1       	rjmp	.+562    	; 0xca6 <LCD_Init+0x25a>
     a74:	8c 30       	cpi	r24, 0x0C	; 12
     a76:	91 05       	cpc	r25, r1
     a78:	bc f4       	brge	.+46     	; 0xaa8 <LCD_Init+0x5c>
     a7a:	88 30       	cpi	r24, 0x08	; 8
     a7c:	91 05       	cpc	r25, r1
     a7e:	09 f4       	brne	.+2      	; 0xa82 <LCD_Init+0x36>
     a80:	ee c0       	rjmp	.+476    	; 0xc5e <LCD_Init+0x212>
     a82:	89 30       	cpi	r24, 0x09	; 9
     a84:	91 05       	cpc	r25, r1
     a86:	44 f4       	brge	.+16     	; 0xa98 <LCD_Init+0x4c>
     a88:	85 30       	cpi	r24, 0x05	; 5
     a8a:	91 05       	cpc	r25, r1
     a8c:	09 f4       	brne	.+2      	; 0xa90 <LCD_Init+0x44>
     a8e:	c1 c0       	rjmp	.+386    	; 0xc12 <LCD_Init+0x1c6>
     a90:	06 97       	sbiw	r24, 0x06	; 6
     a92:	09 f4       	brne	.+2      	; 0xa96 <LCD_Init+0x4a>
     a94:	d8 c0       	rjmp	.+432    	; 0xc46 <LCD_Init+0x1fa>
     a96:	40 c1       	rjmp	.+640    	; 0xd18 <LCD_Init+0x2cc>
     a98:	89 30       	cpi	r24, 0x09	; 9
     a9a:	91 05       	cpc	r25, r1
     a9c:	09 f4       	brne	.+2      	; 0xaa0 <LCD_Init+0x54>
     a9e:	eb c0       	rjmp	.+470    	; 0xc76 <LCD_Init+0x22a>
     aa0:	0a 97       	sbiw	r24, 0x0a	; 10
     aa2:	09 f4       	brne	.+2      	; 0xaa6 <LCD_Init+0x5a>
     aa4:	f4 c0       	rjmp	.+488    	; 0xc8e <LCD_Init+0x242>
     aa6:	38 c1       	rjmp	.+624    	; 0xd18 <LCD_Init+0x2cc>
     aa8:	8e 30       	cpi	r24, 0x0E	; 14
     aaa:	91 05       	cpc	r25, r1
     aac:	09 f4       	brne	.+2      	; 0xab0 <LCD_Init+0x64>
     aae:	1d c1       	rjmp	.+570    	; 0xcea <LCD_Init+0x29e>
     ab0:	8f 30       	cpi	r24, 0x0F	; 15
     ab2:	91 05       	cpc	r25, r1
     ab4:	44 f4       	brge	.+16     	; 0xac6 <LCD_Init+0x7a>
     ab6:	8c 30       	cpi	r24, 0x0C	; 12
     ab8:	91 05       	cpc	r25, r1
     aba:	09 f4       	brne	.+2      	; 0xabe <LCD_Init+0x72>
     abc:	00 c1       	rjmp	.+512    	; 0xcbe <LCD_Init+0x272>
     abe:	0d 97       	sbiw	r24, 0x0d	; 13
     ac0:	09 f4       	brne	.+2      	; 0xac4 <LCD_Init+0x78>
     ac2:	08 c1       	rjmp	.+528    	; 0xcd4 <LCD_Init+0x288>
     ac4:	29 c1       	rjmp	.+594    	; 0xd18 <LCD_Init+0x2cc>
     ac6:	8f 30       	cpi	r24, 0x0F	; 15
     ac8:	91 05       	cpc	r25, r1
     aca:	09 f4       	brne	.+2      	; 0xace <LCD_Init+0x82>
     acc:	19 c1       	rjmp	.+562    	; 0xd00 <LCD_Init+0x2b4>
     ace:	8f 3f       	cpi	r24, 0xFF	; 255
     ad0:	91 05       	cpc	r25, r1
     ad2:	09 f0       	breq	.+2      	; 0xad6 <LCD_Init+0x8a>
     ad4:	21 c1       	rjmp	.+578    	; 0xd18 <LCD_Init+0x2cc>
	{
		case OperationStarted:
		/*Initialize timer2*/
		TIM_Init(TIMER_2);
     ad6:	82 e0       	ldi	r24, 0x02	; 2
     ad8:	0e 94 64 09 	call	0x12c8	; 0x12c8 <TIM_Init>
		/*Initializing the LCD Data Pins*/
		DIO_SetPinDirection(gastr_LCD_8_Config[LCD_Channel_0].u8_LCD_DATA_Port, gastr_LCD_8_Config[LCD_Channel_0].u8_LCD_D7, PIN_OUTPUT);
     adc:	90 91 cc 00 	lds	r25, 0x00CC	; 0x8000cc <gastr_LCD_8_Config+0x5>
     ae0:	80 91 c8 00 	lds	r24, 0x00C8	; 0x8000c8 <gastr_LCD_8_Config+0x1>
     ae4:	41 e0       	ldi	r20, 0x01	; 1
     ae6:	69 2f       	mov	r22, r25
     ae8:	0e 94 eb 06 	call	0xdd6	; 0xdd6 <DIO_SetPinDirection>
		DIO_SetPinDirection(gastr_LCD_8_Config[LCD_Channel_0].u8_LCD_DATA_Port, gastr_LCD_8_Config[LCD_Channel_0].u8_LCD_D6, PIN_OUTPUT);
     aec:	90 91 cd 00 	lds	r25, 0x00CD	; 0x8000cd <gastr_LCD_8_Config+0x6>
     af0:	80 91 c8 00 	lds	r24, 0x00C8	; 0x8000c8 <gastr_LCD_8_Config+0x1>
     af4:	41 e0       	ldi	r20, 0x01	; 1
     af6:	69 2f       	mov	r22, r25
     af8:	0e 94 eb 06 	call	0xdd6	; 0xdd6 <DIO_SetPinDirection>
		DIO_SetPinDirection(gastr_LCD_8_Config[LCD_Channel_0].u8_LCD_DATA_Port, gastr_LCD_8_Config[LCD_Channel_0].u8_LCD_D5, PIN_OUTPUT);
     afc:	90 91 ce 00 	lds	r25, 0x00CE	; 0x8000ce <gastr_LCD_8_Config+0x7>
     b00:	80 91 c8 00 	lds	r24, 0x00C8	; 0x8000c8 <gastr_LCD_8_Config+0x1>
     b04:	41 e0       	ldi	r20, 0x01	; 1
     b06:	69 2f       	mov	r22, r25
     b08:	0e 94 eb 06 	call	0xdd6	; 0xdd6 <DIO_SetPinDirection>
		DIO_SetPinDirection(gastr_LCD_8_Config[LCD_Channel_0].u8_LCD_DATA_Port, gastr_LCD_8_Config[LCD_Channel_0].u8_LCD_D4, PIN_OUTPUT);
     b0c:	90 91 cf 00 	lds	r25, 0x00CF	; 0x8000cf <gastr_LCD_8_Config+0x8>
     b10:	80 91 c8 00 	lds	r24, 0x00C8	; 0x8000c8 <gastr_LCD_8_Config+0x1>
     b14:	41 e0       	ldi	r20, 0x01	; 1
     b16:	69 2f       	mov	r22, r25
     b18:	0e 94 eb 06 	call	0xdd6	; 0xdd6 <DIO_SetPinDirection>
		DIO_SetPinDirection(gastr_LCD_8_Config[LCD_Channel_0].u8_LCD_DATA_Port, gastr_LCD_8_Config[LCD_Channel_0].u8_LCD_D3, PIN_OUTPUT);
     b1c:	90 91 d0 00 	lds	r25, 0x00D0	; 0x8000d0 <gastr_LCD_8_Config+0x9>
     b20:	80 91 c8 00 	lds	r24, 0x00C8	; 0x8000c8 <gastr_LCD_8_Config+0x1>
     b24:	41 e0       	ldi	r20, 0x01	; 1
     b26:	69 2f       	mov	r22, r25
     b28:	0e 94 eb 06 	call	0xdd6	; 0xdd6 <DIO_SetPinDirection>
		DIO_SetPinDirection(gastr_LCD_8_Config[LCD_Channel_0].u8_LCD_DATA_Port, gastr_LCD_8_Config[LCD_Channel_0].u8_LCD_D2, PIN_OUTPUT);
     b2c:	90 91 d1 00 	lds	r25, 0x00D1	; 0x8000d1 <gastr_LCD_8_Config+0xa>
     b30:	80 91 c8 00 	lds	r24, 0x00C8	; 0x8000c8 <gastr_LCD_8_Config+0x1>
     b34:	41 e0       	ldi	r20, 0x01	; 1
     b36:	69 2f       	mov	r22, r25
     b38:	0e 94 eb 06 	call	0xdd6	; 0xdd6 <DIO_SetPinDirection>
		DIO_SetPinDirection(gastr_LCD_8_Config[LCD_Channel_0].u8_LCD_DATA_Port, gastr_LCD_8_Config[LCD_Channel_0].u8_LCD_D1, PIN_OUTPUT);
     b3c:	90 91 d2 00 	lds	r25, 0x00D2	; 0x8000d2 <gastr_LCD_8_Config+0xb>
     b40:	80 91 c8 00 	lds	r24, 0x00C8	; 0x8000c8 <gastr_LCD_8_Config+0x1>
     b44:	41 e0       	ldi	r20, 0x01	; 1
     b46:	69 2f       	mov	r22, r25
     b48:	0e 94 eb 06 	call	0xdd6	; 0xdd6 <DIO_SetPinDirection>
		DIO_SetPinDirection(gastr_LCD_8_Config[LCD_Channel_0].u8_LCD_DATA_Port, gastr_LCD_8_Config[LCD_Channel_0].u8_LCD_D0, PIN_OUTPUT);
     b4c:	90 91 d3 00 	lds	r25, 0x00D3	; 0x8000d3 <gastr_LCD_8_Config+0xc>
     b50:	80 91 c8 00 	lds	r24, 0x00C8	; 0x8000c8 <gastr_LCD_8_Config+0x1>
     b54:	41 e0       	ldi	r20, 0x01	; 1
     b56:	69 2f       	mov	r22, r25
     b58:	0e 94 eb 06 	call	0xdd6	; 0xdd6 <DIO_SetPinDirection>
		/*Initializing the LCD CTRL Pins*/
		DIO_SetPinDirection(gastr_LCD_8_Config[LCD_Channel_0].u8_LCD_CTRL_Port, gastr_LCD_8_Config[LCD_Channel_0].u8_LCD_Rs, PIN_OUTPUT);
     b5c:	90 91 c9 00 	lds	r25, 0x00C9	; 0x8000c9 <gastr_LCD_8_Config+0x2>
     b60:	80 91 c7 00 	lds	r24, 0x00C7	; 0x8000c7 <gastr_LCD_8_Config>
     b64:	41 e0       	ldi	r20, 0x01	; 1
     b66:	69 2f       	mov	r22, r25
     b68:	0e 94 eb 06 	call	0xdd6	; 0xdd6 <DIO_SetPinDirection>
		DIO_SetPinDirection(gastr_LCD_8_Config[LCD_Channel_0].u8_LCD_CTRL_Port, gastr_LCD_8_Config[LCD_Channel_0].u8_LCD_Rw, PIN_OUTPUT);
     b6c:	90 91 ca 00 	lds	r25, 0x00CA	; 0x8000ca <gastr_LCD_8_Config+0x3>
     b70:	80 91 c7 00 	lds	r24, 0x00C7	; 0x8000c7 <gastr_LCD_8_Config>
     b74:	41 e0       	ldi	r20, 0x01	; 1
     b76:	69 2f       	mov	r22, r25
     b78:	0e 94 eb 06 	call	0xdd6	; 0xdd6 <DIO_SetPinDirection>
		DIO_SetPinDirection(gastr_LCD_8_Config[LCD_Channel_0].u8_LCD_CTRL_Port, gastr_LCD_8_Config[LCD_Channel_0].u8_LCD_En, PIN_OUTPUT);
     b7c:	90 91 cb 00 	lds	r25, 0x00CB	; 0x8000cb <gastr_LCD_8_Config+0x4>
     b80:	80 91 c7 00 	lds	r24, 0x00C7	; 0x8000c7 <gastr_LCD_8_Config>
     b84:	41 e0       	ldi	r20, 0x01	; 1
     b86:	69 2f       	mov	r22, r25
     b88:	0e 94 eb 06 	call	0xdd6	; 0xdd6 <DIO_SetPinDirection>
		/*setting initial value for LCD Pins*/
		DIO_WritePin(gastr_LCD_8_Config[LCD_Channel_0].u8_LCD_DATA_Port, gastr_LCD_8_Config[LCD_Channel_0].u8_LCD_D7, PIN_LOW);
     b8c:	90 91 cc 00 	lds	r25, 0x00CC	; 0x8000cc <gastr_LCD_8_Config+0x5>
     b90:	80 91 c8 00 	lds	r24, 0x00C8	; 0x8000c8 <gastr_LCD_8_Config+0x1>
     b94:	40 e0       	ldi	r20, 0x00	; 0
     b96:	69 2f       	mov	r22, r25
     b98:	0e 94 af 07 	call	0xf5e	; 0xf5e <DIO_WritePin>
		DIO_WritePin(gastr_LCD_8_Config[LCD_Channel_0].u8_LCD_DATA_Port, gastr_LCD_8_Config[LCD_Channel_0].u8_LCD_D6, PIN_LOW);
     b9c:	90 91 cd 00 	lds	r25, 0x00CD	; 0x8000cd <gastr_LCD_8_Config+0x6>
     ba0:	80 91 c8 00 	lds	r24, 0x00C8	; 0x8000c8 <gastr_LCD_8_Config+0x1>
     ba4:	40 e0       	ldi	r20, 0x00	; 0
     ba6:	69 2f       	mov	r22, r25
     ba8:	0e 94 af 07 	call	0xf5e	; 0xf5e <DIO_WritePin>
		DIO_WritePin(gastr_LCD_8_Config[LCD_Channel_0].u8_LCD_DATA_Port, gastr_LCD_8_Config[LCD_Channel_0].u8_LCD_D5, PIN_LOW);
     bac:	90 91 ce 00 	lds	r25, 0x00CE	; 0x8000ce <gastr_LCD_8_Config+0x7>
     bb0:	80 91 c8 00 	lds	r24, 0x00C8	; 0x8000c8 <gastr_LCD_8_Config+0x1>
     bb4:	40 e0       	ldi	r20, 0x00	; 0
     bb6:	69 2f       	mov	r22, r25
     bb8:	0e 94 af 07 	call	0xf5e	; 0xf5e <DIO_WritePin>
		DIO_WritePin(gastr_LCD_8_Config[LCD_Channel_0].u8_LCD_DATA_Port, gastr_LCD_8_Config[LCD_Channel_0].u8_LCD_D4, PIN_LOW);
     bbc:	90 91 cf 00 	lds	r25, 0x00CF	; 0x8000cf <gastr_LCD_8_Config+0x8>
     bc0:	80 91 c8 00 	lds	r24, 0x00C8	; 0x8000c8 <gastr_LCD_8_Config+0x1>
     bc4:	40 e0       	ldi	r20, 0x00	; 0
     bc6:	69 2f       	mov	r22, r25
     bc8:	0e 94 af 07 	call	0xf5e	; 0xf5e <DIO_WritePin>
		DIO_WritePin(gastr_LCD_8_Config[LCD_Channel_0].u8_LCD_DATA_Port, gastr_LCD_8_Config[LCD_Channel_0].u8_LCD_D3, PIN_LOW);
     bcc:	90 91 d0 00 	lds	r25, 0x00D0	; 0x8000d0 <gastr_LCD_8_Config+0x9>
     bd0:	80 91 c8 00 	lds	r24, 0x00C8	; 0x8000c8 <gastr_LCD_8_Config+0x1>
     bd4:	40 e0       	ldi	r20, 0x00	; 0
     bd6:	69 2f       	mov	r22, r25
     bd8:	0e 94 af 07 	call	0xf5e	; 0xf5e <DIO_WritePin>
		DIO_WritePin(gastr_LCD_8_Config[LCD_Channel_0].u8_LCD_DATA_Port, gastr_LCD_8_Config[LCD_Channel_0].u8_LCD_D2, PIN_LOW);
     bdc:	90 91 d1 00 	lds	r25, 0x00D1	; 0x8000d1 <gastr_LCD_8_Config+0xa>
     be0:	80 91 c8 00 	lds	r24, 0x00C8	; 0x8000c8 <gastr_LCD_8_Config+0x1>
     be4:	40 e0       	ldi	r20, 0x00	; 0
     be6:	69 2f       	mov	r22, r25
     be8:	0e 94 af 07 	call	0xf5e	; 0xf5e <DIO_WritePin>
		DIO_WritePin(gastr_LCD_8_Config[LCD_Channel_0].u8_LCD_DATA_Port, gastr_LCD_8_Config[LCD_Channel_0].u8_LCD_D1, PIN_LOW);
     bec:	90 91 d2 00 	lds	r25, 0x00D2	; 0x8000d2 <gastr_LCD_8_Config+0xb>
     bf0:	80 91 c8 00 	lds	r24, 0x00C8	; 0x8000c8 <gastr_LCD_8_Config+0x1>
     bf4:	40 e0       	ldi	r20, 0x00	; 0
     bf6:	69 2f       	mov	r22, r25
     bf8:	0e 94 af 07 	call	0xf5e	; 0xf5e <DIO_WritePin>
		DIO_WritePin(gastr_LCD_8_Config[LCD_Channel_0].u8_LCD_DATA_Port, gastr_LCD_8_Config[LCD_Channel_0].u8_LCD_D0, PIN_LOW);
     bfc:	90 91 d3 00 	lds	r25, 0x00D3	; 0x8000d3 <gastr_LCD_8_Config+0xc>
     c00:	80 91 c8 00 	lds	r24, 0x00C8	; 0x8000c8 <gastr_LCD_8_Config+0x1>
     c04:	40 e0       	ldi	r20, 0x00	; 0
     c06:	69 2f       	mov	r22, r25
     c08:	0e 94 af 07 	call	0xf5e	; 0xf5e <DIO_WritePin>
		State = LCD_Pin_Initializing;
     c0c:	85 e0       	ldi	r24, 0x05	; 5
     c0e:	80 93 62 00 	sts	0x0062, r24	; 0x800062 <State.1763>
	case LCD_Pin_Initializing:
		/*start timer delay in background*/
		TimerRetVal = TIM_DelayStatus(TIMER_2, (void (*)(void))LCD_SendCommand);
     c12:	62 e2       	ldi	r22, 0x22	; 34
     c14:	73 e0       	ldi	r23, 0x03	; 3
     c16:	82 e0       	ldi	r24, 0x02	; 2
     c18:	0e 94 0a 0d 	call	0x1a14	; 0x1a14 <TIM_DelayStatus>
     c1c:	8a 83       	std	Y+2, r24	; 0x02
		if(TIMER_E_DELAY_EMPTY == TimerRetVal)
     c1e:	8a 81       	ldd	r24, Y+2	; 0x02
     c20:	8b 3f       	cpi	r24, 0xFB	; 251
     c22:	49 f4       	brne	.+18     	; 0xc36 <LCD_Init+0x1ea>
		{
			TIM_DelayMs(TIMER_2,15, (void (*)(void))LCD_SendCommand);
     c24:	22 e2       	ldi	r18, 0x22	; 34
     c26:	33 e0       	ldi	r19, 0x03	; 3
     c28:	4f e0       	ldi	r20, 0x0F	; 15
     c2a:	50 e0       	ldi	r21, 0x00	; 0
     c2c:	60 e0       	ldi	r22, 0x00	; 0
     c2e:	70 e0       	ldi	r23, 0x00	; 0
     c30:	82 e0       	ldi	r24, 0x02	; 2
     c32:	0e 94 5a 0c 	call	0x18b4	; 0x18b4 <TIM_DelayMs>
		}
		if(TimerRetVal == ((uint8_t)ERROR_OK))
     c36:	8a 81       	ldd	r24, Y+2	; 0x02
     c38:	88 23       	and	r24, r24
     c3a:	09 f0       	breq	.+2      	; 0xc3e <LCD_Init+0x1f2>
     c3c:	70 c0       	rjmp	.+224    	; 0xd1e <LCD_Init+0x2d2>
		{
			/*if timer delay function finished correctly Start the initialization sequence*/
			State = LCD_Start_Sending_Initialization_Sequence;
     c3e:	86 e0       	ldi	r24, 0x06	; 6
     c40:	80 93 62 00 	sts	0x0062, r24	; 0x800062 <State.1763>
		}
		break;
     c44:	6c c0       	rjmp	.+216    	; 0xd1e <LCD_Init+0x2d2>
		case LCD_Start_Sending_Initialization_Sequence:
		LCD_SendCommandRetVal = LCD_SendCommand(LCD_Init_CMD_8_BIT);
     c46:	80 e3       	ldi	r24, 0x30	; 48
     c48:	0e 94 22 03 	call	0x644	; 0x644 <LCD_SendCommand>
     c4c:	8b 83       	std	Y+3, r24	; 0x03
		if(LCD_SendCommandRetVal == OperationSuccess)
     c4e:	8b 81       	ldd	r24, Y+3	; 0x03
     c50:	88 23       	and	r24, r24
     c52:	09 f0       	breq	.+2      	; 0xc56 <LCD_Init+0x20a>
     c54:	66 c0       	rjmp	.+204    	; 0xd22 <LCD_Init+0x2d6>
		{
			State = First_Cmd_In_Initialization_Sequence_Is_Sent;
     c56:	88 e0       	ldi	r24, 0x08	; 8
     c58:	80 93 62 00 	sts	0x0062, r24	; 0x800062 <State.1763>
		}
		break;
     c5c:	62 c0       	rjmp	.+196    	; 0xd22 <LCD_Init+0x2d6>
		case First_Cmd_In_Initialization_Sequence_Is_Sent:
		LCD_SendCommandRetVal = LCD_SendCommand(LCD_Init_CMD_8_BIT);
     c5e:	80 e3       	ldi	r24, 0x30	; 48
     c60:	0e 94 22 03 	call	0x644	; 0x644 <LCD_SendCommand>
     c64:	8b 83       	std	Y+3, r24	; 0x03
		if(LCD_SendCommandRetVal == OperationSuccess)
     c66:	8b 81       	ldd	r24, Y+3	; 0x03
     c68:	88 23       	and	r24, r24
     c6a:	09 f0       	breq	.+2      	; 0xc6e <LCD_Init+0x222>
     c6c:	5c c0       	rjmp	.+184    	; 0xd26 <LCD_Init+0x2da>
		{
			State = Second_Cmd_In_Initialization_Sequence_Is_Sent;
     c6e:	89 e0       	ldi	r24, 0x09	; 9
     c70:	80 93 62 00 	sts	0x0062, r24	; 0x800062 <State.1763>
		}
		break;
     c74:	58 c0       	rjmp	.+176    	; 0xd26 <LCD_Init+0x2da>
		case Second_Cmd_In_Initialization_Sequence_Is_Sent:
		LCD_SendCommandRetVal = LCD_SendCommand(LCD_Init_CMD_8_BIT);
     c76:	80 e3       	ldi	r24, 0x30	; 48
     c78:	0e 94 22 03 	call	0x644	; 0x644 <LCD_SendCommand>
     c7c:	8b 83       	std	Y+3, r24	; 0x03
		if(LCD_SendCommandRetVal == OperationSuccess)
     c7e:	8b 81       	ldd	r24, Y+3	; 0x03
     c80:	88 23       	and	r24, r24
     c82:	09 f0       	breq	.+2      	; 0xc86 <LCD_Init+0x23a>
     c84:	52 c0       	rjmp	.+164    	; 0xd2a <LCD_Init+0x2de>
		{
			State = Third_Cmd_In_Initialization_Sequence_Is_Sent;
     c86:	8a e0       	ldi	r24, 0x0A	; 10
     c88:	80 93 62 00 	sts	0x0062, r24	; 0x800062 <State.1763>
		}
		break;
     c8c:	4e c0       	rjmp	.+156    	; 0xd2a <LCD_Init+0x2de>
		case Third_Cmd_In_Initialization_Sequence_Is_Sent:
		LCD_SendCommandRetVal = LCD_SendCommand(LCD_FUNCSET_3);//LCD_HOME
     c8e:	88 e3       	ldi	r24, 0x38	; 56
     c90:	0e 94 22 03 	call	0x644	; 0x644 <LCD_SendCommand>
     c94:	8b 83       	std	Y+3, r24	; 0x03
		if(LCD_SendCommandRetVal == OperationSuccess)
     c96:	8b 81       	ldd	r24, Y+3	; 0x03
     c98:	88 23       	and	r24, r24
     c9a:	09 f0       	breq	.+2      	; 0xc9e <LCD_Init+0x252>
     c9c:	48 c0       	rjmp	.+144    	; 0xd2e <LCD_Init+0x2e2>
		{
			State = Fourth_Cmd_In_Initialization_Sequence_Is_Sent;
     c9e:	8b e0       	ldi	r24, 0x0B	; 11
     ca0:	80 93 62 00 	sts	0x0062, r24	; 0x800062 <State.1763>
		}
		break;
     ca4:	44 c0       	rjmp	.+136    	; 0xd2e <LCD_Init+0x2e2>
		case Fourth_Cmd_In_Initialization_Sequence_Is_Sent:
		LCD_SendCommandRetVal = LCD_SendCommand(LCD_DISPON_CURSOFF);
     ca6:	8c e0       	ldi	r24, 0x0C	; 12
     ca8:	0e 94 22 03 	call	0x644	; 0x644 <LCD_SendCommand>
     cac:	8b 83       	std	Y+3, r24	; 0x03
		if(LCD_SendCommandRetVal == OperationSuccess)
     cae:	8b 81       	ldd	r24, Y+3	; 0x03
     cb0:	88 23       	and	r24, r24
     cb2:	09 f0       	breq	.+2      	; 0xcb6 <LCD_Init+0x26a>
     cb4:	3e c0       	rjmp	.+124    	; 0xd32 <LCD_Init+0x2e6>
		{
			State = Fifth_Cmd_In_Initialization_Sequence_Is_Sent;
     cb6:	8c e0       	ldi	r24, 0x0C	; 12
     cb8:	80 93 62 00 	sts	0x0062, r24	; 0x800062 <State.1763>
		}
		break;
     cbc:	3a c0       	rjmp	.+116    	; 0xd32 <LCD_Init+0x2e6>
		case Fifth_Cmd_In_Initialization_Sequence_Is_Sent:
		LCD_SendCommandRetVal = LCD_SendCommand(LCD_INCREMENTENTRYMODE);
     cbe:	86 e0       	ldi	r24, 0x06	; 6
     cc0:	0e 94 22 03 	call	0x644	; 0x644 <LCD_SendCommand>
     cc4:	8b 83       	std	Y+3, r24	; 0x03
		if(LCD_SendCommandRetVal == OperationSuccess)
     cc6:	8b 81       	ldd	r24, Y+3	; 0x03
     cc8:	88 23       	and	r24, r24
     cca:	a9 f5       	brne	.+106    	; 0xd36 <LCD_Init+0x2ea>
		{
			State = Sixth_Cmd_In_Initialization_Sequence_Is_Sent;
     ccc:	8d e0       	ldi	r24, 0x0D	; 13
     cce:	80 93 62 00 	sts	0x0062, r24	; 0x800062 <State.1763>
		}
		break;
     cd2:	31 c0       	rjmp	.+98     	; 0xd36 <LCD_Init+0x2ea>
		case Sixth_Cmd_In_Initialization_Sequence_Is_Sent:
		LCD_SendCommandRetVal = LCD_SendCommand(LCD_HOME);
     cd4:	82 e0       	ldi	r24, 0x02	; 2
     cd6:	0e 94 22 03 	call	0x644	; 0x644 <LCD_SendCommand>
     cda:	8b 83       	std	Y+3, r24	; 0x03
		if(LCD_SendCommandRetVal == OperationSuccess)
     cdc:	8b 81       	ldd	r24, Y+3	; 0x03
     cde:	88 23       	and	r24, r24
     ce0:	61 f5       	brne	.+88     	; 0xd3a <LCD_Init+0x2ee>
		{
			State = Seventh_Cmd_In_Initialization_Sequence_Is_Sent;
     ce2:	8e e0       	ldi	r24, 0x0E	; 14
     ce4:	80 93 62 00 	sts	0x0062, r24	; 0x800062 <State.1763>
		}
		break;
     ce8:	28 c0       	rjmp	.+80     	; 0xd3a <LCD_Init+0x2ee>
		case Seventh_Cmd_In_Initialization_Sequence_Is_Sent:
		LCD_SendCommandRetVal = LCD_SendCommand(LCD_CURS_Position0);
     cea:	80 e8       	ldi	r24, 0x80	; 128
     cec:	0e 94 22 03 	call	0x644	; 0x644 <LCD_SendCommand>
     cf0:	8b 83       	std	Y+3, r24	; 0x03
		if(LCD_SendCommandRetVal == OperationSuccess)
     cf2:	8b 81       	ldd	r24, Y+3	; 0x03
     cf4:	88 23       	and	r24, r24
     cf6:	19 f5       	brne	.+70     	; 0xd3e <LCD_Init+0x2f2>
		{
			State = Final_Cmd_In_Initialization_Sequence_Is_Sent;
     cf8:	8f e0       	ldi	r24, 0x0F	; 15
     cfa:	80 93 62 00 	sts	0x0062, r24	; 0x800062 <State.1763>
		}
		break;
     cfe:	1f c0       	rjmp	.+62     	; 0xd3e <LCD_Init+0x2f2>
		case Final_Cmd_In_Initialization_Sequence_Is_Sent:
		LCD_SendCommandRetVal = LCD_SendCommand(LCD_CURS_Position0);
     d00:	80 e8       	ldi	r24, 0x80	; 128
     d02:	0e 94 22 03 	call	0x644	; 0x644 <LCD_SendCommand>
     d06:	8b 83       	std	Y+3, r24	; 0x03
		if(LCD_SendCommandRetVal == OperationSuccess)
     d08:	8b 81       	ldd	r24, Y+3	; 0x03
     d0a:	88 23       	and	r24, r24
     d0c:	d1 f4       	brne	.+52     	; 0xd42 <LCD_Init+0x2f6>
		{
			State = OperationStarted;
     d0e:	8f ef       	ldi	r24, 0xFF	; 255
     d10:	80 93 62 00 	sts	0x0062, r24	; 0x800062 <State.1763>
			ErrRetVal = OperationSuccess;
     d14:	19 82       	std	Y+1, r1	; 0x01
		}
		break;
     d16:	15 c0       	rjmp	.+42     	; 0xd42 <LCD_Init+0x2f6>
		default:
		ErrRetVal = OperationFail;
     d18:	81 e0       	ldi	r24, 0x01	; 1
     d1a:	89 83       	std	Y+1, r24	; 0x01
		break;
     d1c:	13 c0       	rjmp	.+38     	; 0xd44 <LCD_Init+0x2f8>
		if(TimerRetVal == ((uint8_t)ERROR_OK))
		{
			/*if timer delay function finished correctly Start the initialization sequence*/
			State = LCD_Start_Sending_Initialization_Sequence;
		}
		break;
     d1e:	00 00       	nop
     d20:	11 c0       	rjmp	.+34     	; 0xd44 <LCD_Init+0x2f8>
		LCD_SendCommandRetVal = LCD_SendCommand(LCD_Init_CMD_8_BIT);
		if(LCD_SendCommandRetVal == OperationSuccess)
		{
			State = First_Cmd_In_Initialization_Sequence_Is_Sent;
		}
		break;
     d22:	00 00       	nop
     d24:	0f c0       	rjmp	.+30     	; 0xd44 <LCD_Init+0x2f8>
		LCD_SendCommandRetVal = LCD_SendCommand(LCD_Init_CMD_8_BIT);
		if(LCD_SendCommandRetVal == OperationSuccess)
		{
			State = Second_Cmd_In_Initialization_Sequence_Is_Sent;
		}
		break;
     d26:	00 00       	nop
     d28:	0d c0       	rjmp	.+26     	; 0xd44 <LCD_Init+0x2f8>
		LCD_SendCommandRetVal = LCD_SendCommand(LCD_Init_CMD_8_BIT);
		if(LCD_SendCommandRetVal == OperationSuccess)
		{
			State = Third_Cmd_In_Initialization_Sequence_Is_Sent;
		}
		break;
     d2a:	00 00       	nop
     d2c:	0b c0       	rjmp	.+22     	; 0xd44 <LCD_Init+0x2f8>
		LCD_SendCommandRetVal = LCD_SendCommand(LCD_FUNCSET_3);//LCD_HOME
		if(LCD_SendCommandRetVal == OperationSuccess)
		{
			State = Fourth_Cmd_In_Initialization_Sequence_Is_Sent;
		}
		break;
     d2e:	00 00       	nop
     d30:	09 c0       	rjmp	.+18     	; 0xd44 <LCD_Init+0x2f8>
		LCD_SendCommandRetVal = LCD_SendCommand(LCD_DISPON_CURSOFF);
		if(LCD_SendCommandRetVal == OperationSuccess)
		{
			State = Fifth_Cmd_In_Initialization_Sequence_Is_Sent;
		}
		break;
     d32:	00 00       	nop
     d34:	07 c0       	rjmp	.+14     	; 0xd44 <LCD_Init+0x2f8>
		LCD_SendCommandRetVal = LCD_SendCommand(LCD_INCREMENTENTRYMODE);
		if(LCD_SendCommandRetVal == OperationSuccess)
		{
			State = Sixth_Cmd_In_Initialization_Sequence_Is_Sent;
		}
		break;
     d36:	00 00       	nop
     d38:	05 c0       	rjmp	.+10     	; 0xd44 <LCD_Init+0x2f8>
		LCD_SendCommandRetVal = LCD_SendCommand(LCD_HOME);
		if(LCD_SendCommandRetVal == OperationSuccess)
		{
			State = Seventh_Cmd_In_Initialization_Sequence_Is_Sent;
		}
		break;
     d3a:	00 00       	nop
     d3c:	03 c0       	rjmp	.+6      	; 0xd44 <LCD_Init+0x2f8>
		LCD_SendCommandRetVal = LCD_SendCommand(LCD_CURS_Position0);
		if(LCD_SendCommandRetVal == OperationSuccess)
		{
			State = Final_Cmd_In_Initialization_Sequence_Is_Sent;
		}
		break;
     d3e:	00 00       	nop
     d40:	01 c0       	rjmp	.+2      	; 0xd44 <LCD_Init+0x2f8>
		if(LCD_SendCommandRetVal == OperationSuccess)
		{
			State = OperationStarted;
			ErrRetVal = OperationSuccess;
		}
		break;
     d42:	00 00       	nop
		default:
		ErrRetVal = OperationFail;
		break;
	}
	#endif
	return ErrRetVal;
     d44:	89 81       	ldd	r24, Y+1	; 0x01
}
     d46:	0f 90       	pop	r0
     d48:	0f 90       	pop	r0
     d4a:	0f 90       	pop	r0
     d4c:	df 91       	pop	r29
     d4e:	cf 91       	pop	r28
     d50:	08 95       	ret

00000d52 <LCD_SendString>:
ERROR_STATE_t LCD_SendString(const uint8_t* String)
{
     d52:	cf 93       	push	r28
     d54:	df 93       	push	r29
     d56:	00 d0       	rcall	.+0      	; 0xd58 <LCD_SendString+0x6>
     d58:	00 d0       	rcall	.+0      	; 0xd5a <LCD_SendString+0x8>
     d5a:	cd b7       	in	r28, 0x3d	; 61
     d5c:	de b7       	in	r29, 0x3e	; 62
     d5e:	9c 83       	std	Y+4, r25	; 0x04
     d60:	8b 83       	std	Y+3, r24	; 0x03
	uint8_t ErrRetVal = OperationStarted;
     d62:	8f ef       	ldi	r24, 0xFF	; 255
     d64:	89 83       	std	Y+1, r24	; 0x01
	uint8_t LCD_SendDataRetVal = OperationStarted;
     d66:	8f ef       	ldi	r24, 0xFF	; 255
     d68:	8a 83       	std	Y+2, r24	; 0x02
	static uint8_t Number = 0;
	if (String != NULL_PTR) {
     d6a:	8b 81       	ldd	r24, Y+3	; 0x03
     d6c:	9c 81       	ldd	r25, Y+4	; 0x04
     d6e:	89 2b       	or	r24, r25
     d70:	41 f1       	breq	.+80     	; 0xdc2 <LCD_SendString+0x70>
		if (String[Number] != NULL_TERMINATOR ) {
     d72:	80 91 12 01 	lds	r24, 0x0112	; 0x800112 <Number.1786>
     d76:	88 2f       	mov	r24, r24
     d78:	90 e0       	ldi	r25, 0x00	; 0
     d7a:	2b 81       	ldd	r18, Y+3	; 0x03
     d7c:	3c 81       	ldd	r19, Y+4	; 0x04
     d7e:	82 0f       	add	r24, r18
     d80:	93 1f       	adc	r25, r19
     d82:	fc 01       	movw	r30, r24
     d84:	80 81       	ld	r24, Z
     d86:	88 23       	and	r24, r24
     d88:	c1 f0       	breq	.+48     	; 0xdba <LCD_SendString+0x68>
			ErrRetVal = OperationRunning;
     d8a:	82 e0       	ldi	r24, 0x02	; 2
     d8c:	89 83       	std	Y+1, r24	; 0x01
			LCD_SendDataRetVal = LCD_SendData(String[Number]);
     d8e:	80 91 12 01 	lds	r24, 0x0112	; 0x800112 <Number.1786>
     d92:	88 2f       	mov	r24, r24
     d94:	90 e0       	ldi	r25, 0x00	; 0
     d96:	2b 81       	ldd	r18, Y+3	; 0x03
     d98:	3c 81       	ldd	r19, Y+4	; 0x04
     d9a:	82 0f       	add	r24, r18
     d9c:	93 1f       	adc	r25, r19
     d9e:	fc 01       	movw	r30, r24
     da0:	80 81       	ld	r24, Z
     da2:	0e 94 35 04 	call	0x86a	; 0x86a <LCD_SendData>
     da6:	8a 83       	std	Y+2, r24	; 0x02
			if(LCD_SendDataRetVal == OperationSuccess)
     da8:	8a 81       	ldd	r24, Y+2	; 0x02
     daa:	88 23       	and	r24, r24
     dac:	61 f4       	brne	.+24     	; 0xdc6 <LCD_SendString+0x74>
			{
				Number++;
     dae:	80 91 12 01 	lds	r24, 0x0112	; 0x800112 <Number.1786>
     db2:	8f 5f       	subi	r24, 0xFF	; 255
     db4:	80 93 12 01 	sts	0x0112, r24	; 0x800112 <Number.1786>
     db8:	06 c0       	rjmp	.+12     	; 0xdc6 <LCD_SendString+0x74>
			}
		}
		else
		{
			Number = 0;
     dba:	10 92 12 01 	sts	0x0112, r1	; 0x800112 <Number.1786>
			ErrRetVal = OperationSuccess;
     dbe:	19 82       	std	Y+1, r1	; 0x01
     dc0:	02 c0       	rjmp	.+4      	; 0xdc6 <LCD_SendString+0x74>
		}
	} else {
		ErrRetVal = OperationFail;
     dc2:	81 e0       	ldi	r24, 0x01	; 1
     dc4:	89 83       	std	Y+1, r24	; 0x01
	}
	return ErrRetVal;
     dc6:	89 81       	ldd	r24, Y+1	; 0x01
}
     dc8:	0f 90       	pop	r0
     dca:	0f 90       	pop	r0
     dcc:	0f 90       	pop	r0
     dce:	0f 90       	pop	r0
     dd0:	df 91       	pop	r29
     dd2:	cf 91       	pop	r28
     dd4:	08 95       	ret

00000dd6 <DIO_SetPinDirection>:

#include "MC_REGISTERS.h"
#include "DIO.h"

ERROR_STATE_t DIO_SetPinDirection(uint8_t PortName , uint8_t PinNo ,uint8_t PinDirection)
{
     dd6:	cf 93       	push	r28
     dd8:	df 93       	push	r29
     dda:	00 d0       	rcall	.+0      	; 0xddc <DIO_SetPinDirection+0x6>
     ddc:	00 d0       	rcall	.+0      	; 0xdde <DIO_SetPinDirection+0x8>
     dde:	cd b7       	in	r28, 0x3d	; 61
     de0:	de b7       	in	r29, 0x3e	; 62
     de2:	8a 83       	std	Y+2, r24	; 0x02
     de4:	6b 83       	std	Y+3, r22	; 0x03
     de6:	4c 83       	std	Y+4, r20	; 0x04
	uint8_t u8_ErrorState=ERROR_OK;
     de8:	19 82       	std	Y+1, r1	; 0x01
	if((PIN_INPUT!=PinDirection)&&(PIN_OUTPUT!=PinDirection))
     dea:	8c 81       	ldd	r24, Y+4	; 0x04
     dec:	88 23       	and	r24, r24
     dee:	31 f0       	breq	.+12     	; 0xdfc <DIO_SetPinDirection+0x26>
     df0:	8c 81       	ldd	r24, Y+4	; 0x04
     df2:	81 30       	cpi	r24, 0x01	; 1
     df4:	19 f0       	breq	.+6      	; 0xdfc <DIO_SetPinDirection+0x26>
	{
		u8_ErrorState=ERROR_NOK;
     df6:	81 e0       	ldi	r24, 0x01	; 1
     df8:	89 83       	std	Y+1, r24	; 0x01
     dfa:	a9 c0       	rjmp	.+338    	; 0xf4e <DIO_SetPinDirection+0x178>
	}
	else if(PinNo>PIN7)
     dfc:	8b 81       	ldd	r24, Y+3	; 0x03
     dfe:	88 30       	cpi	r24, 0x08	; 8
     e00:	18 f0       	brcs	.+6      	; 0xe08 <DIO_SetPinDirection+0x32>
	{
		u8_ErrorState=ERROR_NOK;
     e02:	81 e0       	ldi	r24, 0x01	; 1
     e04:	89 83       	std	Y+1, r24	; 0x01
     e06:	a3 c0       	rjmp	.+326    	; 0xf4e <DIO_SetPinDirection+0x178>
	}
	else
	{
		switch(PortName)
     e08:	8a 81       	ldd	r24, Y+2	; 0x02
     e0a:	88 2f       	mov	r24, r24
     e0c:	90 e0       	ldi	r25, 0x00	; 0
     e0e:	81 30       	cpi	r24, 0x01	; 1
     e10:	91 05       	cpc	r25, r1
     e12:	89 f1       	breq	.+98     	; 0xe76 <DIO_SetPinDirection+0xa0>
     e14:	82 30       	cpi	r24, 0x02	; 2
     e16:	91 05       	cpc	r25, r1
     e18:	1c f4       	brge	.+6      	; 0xe20 <DIO_SetPinDirection+0x4a>
     e1a:	89 2b       	or	r24, r25
     e1c:	49 f0       	breq	.+18     	; 0xe30 <DIO_SetPinDirection+0x5a>
     e1e:	94 c0       	rjmp	.+296    	; 0xf48 <DIO_SetPinDirection+0x172>
     e20:	82 30       	cpi	r24, 0x02	; 2
     e22:	91 05       	cpc	r25, r1
     e24:	09 f4       	brne	.+2      	; 0xe28 <DIO_SetPinDirection+0x52>
     e26:	4a c0       	rjmp	.+148    	; 0xebc <DIO_SetPinDirection+0xe6>
     e28:	03 97       	sbiw	r24, 0x03	; 3
     e2a:	09 f4       	brne	.+2      	; 0xe2e <DIO_SetPinDirection+0x58>
     e2c:	6a c0       	rjmp	.+212    	; 0xf02 <DIO_SetPinDirection+0x12c>
     e2e:	8c c0       	rjmp	.+280    	; 0xf48 <DIO_SetPinDirection+0x172>
		{
			case PORT_A:
				BIT_WRITE(DDRA,PinNo,PinDirection);
     e30:	8a e3       	ldi	r24, 0x3A	; 58
     e32:	90 e0       	ldi	r25, 0x00	; 0
     e34:	2a e3       	ldi	r18, 0x3A	; 58
     e36:	30 e0       	ldi	r19, 0x00	; 0
     e38:	f9 01       	movw	r30, r18
     e3a:	20 81       	ld	r18, Z
     e3c:	62 2f       	mov	r22, r18
     e3e:	2b 81       	ldd	r18, Y+3	; 0x03
     e40:	42 2f       	mov	r20, r18
     e42:	50 e0       	ldi	r21, 0x00	; 0
     e44:	21 e0       	ldi	r18, 0x01	; 1
     e46:	30 e0       	ldi	r19, 0x00	; 0
     e48:	02 c0       	rjmp	.+4      	; 0xe4e <DIO_SetPinDirection+0x78>
     e4a:	22 0f       	add	r18, r18
     e4c:	33 1f       	adc	r19, r19
     e4e:	4a 95       	dec	r20
     e50:	e2 f7       	brpl	.-8      	; 0xe4a <DIO_SetPinDirection+0x74>
     e52:	20 95       	com	r18
     e54:	62 23       	and	r22, r18
     e56:	2c 81       	ldd	r18, Y+4	; 0x04
     e58:	22 2f       	mov	r18, r18
     e5a:	30 e0       	ldi	r19, 0x00	; 0
     e5c:	4b 81       	ldd	r20, Y+3	; 0x03
     e5e:	44 2f       	mov	r20, r20
     e60:	50 e0       	ldi	r21, 0x00	; 0
     e62:	02 c0       	rjmp	.+4      	; 0xe68 <DIO_SetPinDirection+0x92>
     e64:	22 0f       	add	r18, r18
     e66:	33 1f       	adc	r19, r19
     e68:	4a 95       	dec	r20
     e6a:	e2 f7       	brpl	.-8      	; 0xe64 <DIO_SetPinDirection+0x8e>
     e6c:	26 2b       	or	r18, r22
     e6e:	fc 01       	movw	r30, r24
     e70:	20 83       	st	Z, r18
				u8_ErrorState=ERROR_OK;
     e72:	19 82       	std	Y+1, r1	; 0x01
				break;
     e74:	6c c0       	rjmp	.+216    	; 0xf4e <DIO_SetPinDirection+0x178>
			case PORT_B:
				BIT_WRITE(DDRB,PinNo,PinDirection);
     e76:	87 e3       	ldi	r24, 0x37	; 55
     e78:	90 e0       	ldi	r25, 0x00	; 0
     e7a:	27 e3       	ldi	r18, 0x37	; 55
     e7c:	30 e0       	ldi	r19, 0x00	; 0
     e7e:	f9 01       	movw	r30, r18
     e80:	20 81       	ld	r18, Z
     e82:	62 2f       	mov	r22, r18
     e84:	2b 81       	ldd	r18, Y+3	; 0x03
     e86:	42 2f       	mov	r20, r18
     e88:	50 e0       	ldi	r21, 0x00	; 0
     e8a:	21 e0       	ldi	r18, 0x01	; 1
     e8c:	30 e0       	ldi	r19, 0x00	; 0
     e8e:	02 c0       	rjmp	.+4      	; 0xe94 <DIO_SetPinDirection+0xbe>
     e90:	22 0f       	add	r18, r18
     e92:	33 1f       	adc	r19, r19
     e94:	4a 95       	dec	r20
     e96:	e2 f7       	brpl	.-8      	; 0xe90 <DIO_SetPinDirection+0xba>
     e98:	20 95       	com	r18
     e9a:	62 23       	and	r22, r18
     e9c:	2c 81       	ldd	r18, Y+4	; 0x04
     e9e:	22 2f       	mov	r18, r18
     ea0:	30 e0       	ldi	r19, 0x00	; 0
     ea2:	4b 81       	ldd	r20, Y+3	; 0x03
     ea4:	44 2f       	mov	r20, r20
     ea6:	50 e0       	ldi	r21, 0x00	; 0
     ea8:	02 c0       	rjmp	.+4      	; 0xeae <DIO_SetPinDirection+0xd8>
     eaa:	22 0f       	add	r18, r18
     eac:	33 1f       	adc	r19, r19
     eae:	4a 95       	dec	r20
     eb0:	e2 f7       	brpl	.-8      	; 0xeaa <DIO_SetPinDirection+0xd4>
     eb2:	26 2b       	or	r18, r22
     eb4:	fc 01       	movw	r30, r24
     eb6:	20 83       	st	Z, r18
				u8_ErrorState=ERROR_OK;
     eb8:	19 82       	std	Y+1, r1	; 0x01
				break;
     eba:	49 c0       	rjmp	.+146    	; 0xf4e <DIO_SetPinDirection+0x178>
			case PORT_C:
				BIT_WRITE(DDRC,PinNo,PinDirection);
     ebc:	84 e3       	ldi	r24, 0x34	; 52
     ebe:	90 e0       	ldi	r25, 0x00	; 0
     ec0:	24 e3       	ldi	r18, 0x34	; 52
     ec2:	30 e0       	ldi	r19, 0x00	; 0
     ec4:	f9 01       	movw	r30, r18
     ec6:	20 81       	ld	r18, Z
     ec8:	62 2f       	mov	r22, r18
     eca:	2b 81       	ldd	r18, Y+3	; 0x03
     ecc:	42 2f       	mov	r20, r18
     ece:	50 e0       	ldi	r21, 0x00	; 0
     ed0:	21 e0       	ldi	r18, 0x01	; 1
     ed2:	30 e0       	ldi	r19, 0x00	; 0
     ed4:	02 c0       	rjmp	.+4      	; 0xeda <DIO_SetPinDirection+0x104>
     ed6:	22 0f       	add	r18, r18
     ed8:	33 1f       	adc	r19, r19
     eda:	4a 95       	dec	r20
     edc:	e2 f7       	brpl	.-8      	; 0xed6 <DIO_SetPinDirection+0x100>
     ede:	20 95       	com	r18
     ee0:	62 23       	and	r22, r18
     ee2:	2c 81       	ldd	r18, Y+4	; 0x04
     ee4:	22 2f       	mov	r18, r18
     ee6:	30 e0       	ldi	r19, 0x00	; 0
     ee8:	4b 81       	ldd	r20, Y+3	; 0x03
     eea:	44 2f       	mov	r20, r20
     eec:	50 e0       	ldi	r21, 0x00	; 0
     eee:	02 c0       	rjmp	.+4      	; 0xef4 <DIO_SetPinDirection+0x11e>
     ef0:	22 0f       	add	r18, r18
     ef2:	33 1f       	adc	r19, r19
     ef4:	4a 95       	dec	r20
     ef6:	e2 f7       	brpl	.-8      	; 0xef0 <DIO_SetPinDirection+0x11a>
     ef8:	26 2b       	or	r18, r22
     efa:	fc 01       	movw	r30, r24
     efc:	20 83       	st	Z, r18
				u8_ErrorState=ERROR_OK;
     efe:	19 82       	std	Y+1, r1	; 0x01
				break;
     f00:	26 c0       	rjmp	.+76     	; 0xf4e <DIO_SetPinDirection+0x178>
			case PORT_D:
				BIT_WRITE(DDRD,PinNo,PinDirection);
     f02:	81 e3       	ldi	r24, 0x31	; 49
     f04:	90 e0       	ldi	r25, 0x00	; 0
     f06:	21 e3       	ldi	r18, 0x31	; 49
     f08:	30 e0       	ldi	r19, 0x00	; 0
     f0a:	f9 01       	movw	r30, r18
     f0c:	20 81       	ld	r18, Z
     f0e:	62 2f       	mov	r22, r18
     f10:	2b 81       	ldd	r18, Y+3	; 0x03
     f12:	42 2f       	mov	r20, r18
     f14:	50 e0       	ldi	r21, 0x00	; 0
     f16:	21 e0       	ldi	r18, 0x01	; 1
     f18:	30 e0       	ldi	r19, 0x00	; 0
     f1a:	02 c0       	rjmp	.+4      	; 0xf20 <DIO_SetPinDirection+0x14a>
     f1c:	22 0f       	add	r18, r18
     f1e:	33 1f       	adc	r19, r19
     f20:	4a 95       	dec	r20
     f22:	e2 f7       	brpl	.-8      	; 0xf1c <DIO_SetPinDirection+0x146>
     f24:	20 95       	com	r18
     f26:	62 23       	and	r22, r18
     f28:	2c 81       	ldd	r18, Y+4	; 0x04
     f2a:	22 2f       	mov	r18, r18
     f2c:	30 e0       	ldi	r19, 0x00	; 0
     f2e:	4b 81       	ldd	r20, Y+3	; 0x03
     f30:	44 2f       	mov	r20, r20
     f32:	50 e0       	ldi	r21, 0x00	; 0
     f34:	02 c0       	rjmp	.+4      	; 0xf3a <DIO_SetPinDirection+0x164>
     f36:	22 0f       	add	r18, r18
     f38:	33 1f       	adc	r19, r19
     f3a:	4a 95       	dec	r20
     f3c:	e2 f7       	brpl	.-8      	; 0xf36 <DIO_SetPinDirection+0x160>
     f3e:	26 2b       	or	r18, r22
     f40:	fc 01       	movw	r30, r24
     f42:	20 83       	st	Z, r18
				u8_ErrorState=ERROR_OK;
     f44:	19 82       	std	Y+1, r1	; 0x01
				break;
     f46:	03 c0       	rjmp	.+6      	; 0xf4e <DIO_SetPinDirection+0x178>
			default:
				u8_ErrorState=ERROR_NOK;
     f48:	81 e0       	ldi	r24, 0x01	; 1
     f4a:	89 83       	std	Y+1, r24	; 0x01
				break;
     f4c:	00 00       	nop
		}		
	}
	return u8_ErrorState;
     f4e:	89 81       	ldd	r24, Y+1	; 0x01
}
     f50:	0f 90       	pop	r0
     f52:	0f 90       	pop	r0
     f54:	0f 90       	pop	r0
     f56:	0f 90       	pop	r0
     f58:	df 91       	pop	r29
     f5a:	cf 91       	pop	r28
     f5c:	08 95       	ret

00000f5e <DIO_WritePin>:

ERROR_STATE_t DIO_WritePin(uint8_t PortName , uint8_t PinNo ,uint8_t PinValue)
{
     f5e:	cf 93       	push	r28
     f60:	df 93       	push	r29
     f62:	00 d0       	rcall	.+0      	; 0xf64 <DIO_WritePin+0x6>
     f64:	00 d0       	rcall	.+0      	; 0xf66 <DIO_WritePin+0x8>
     f66:	cd b7       	in	r28, 0x3d	; 61
     f68:	de b7       	in	r29, 0x3e	; 62
     f6a:	8a 83       	std	Y+2, r24	; 0x02
     f6c:	6b 83       	std	Y+3, r22	; 0x03
     f6e:	4c 83       	std	Y+4, r20	; 0x04
	uint8_t u8_ErrorState=ERROR_OK;
     f70:	19 82       	std	Y+1, r1	; 0x01
	if((PIN_LOW!=PinValue)&&(PIN_HIGH!=PinValue))
     f72:	8c 81       	ldd	r24, Y+4	; 0x04
     f74:	88 23       	and	r24, r24
     f76:	31 f0       	breq	.+12     	; 0xf84 <DIO_WritePin+0x26>
     f78:	8c 81       	ldd	r24, Y+4	; 0x04
     f7a:	81 30       	cpi	r24, 0x01	; 1
     f7c:	19 f0       	breq	.+6      	; 0xf84 <DIO_WritePin+0x26>
	{
		u8_ErrorState=ERROR_NOK;
     f7e:	81 e0       	ldi	r24, 0x01	; 1
     f80:	89 83       	std	Y+1, r24	; 0x01
     f82:	a9 c0       	rjmp	.+338    	; 0x10d6 <DIO_WritePin+0x178>
	}
	else if(PinNo>PIN7)
     f84:	8b 81       	ldd	r24, Y+3	; 0x03
     f86:	88 30       	cpi	r24, 0x08	; 8
     f88:	18 f0       	brcs	.+6      	; 0xf90 <DIO_WritePin+0x32>
	{
		u8_ErrorState=ERROR_NOK;
     f8a:	81 e0       	ldi	r24, 0x01	; 1
     f8c:	89 83       	std	Y+1, r24	; 0x01
     f8e:	a3 c0       	rjmp	.+326    	; 0x10d6 <DIO_WritePin+0x178>
	}
	else
	{
		switch(PortName)
     f90:	8a 81       	ldd	r24, Y+2	; 0x02
     f92:	88 2f       	mov	r24, r24
     f94:	90 e0       	ldi	r25, 0x00	; 0
     f96:	81 30       	cpi	r24, 0x01	; 1
     f98:	91 05       	cpc	r25, r1
     f9a:	89 f1       	breq	.+98     	; 0xffe <DIO_WritePin+0xa0>
     f9c:	82 30       	cpi	r24, 0x02	; 2
     f9e:	91 05       	cpc	r25, r1
     fa0:	1c f4       	brge	.+6      	; 0xfa8 <DIO_WritePin+0x4a>
     fa2:	89 2b       	or	r24, r25
     fa4:	49 f0       	breq	.+18     	; 0xfb8 <DIO_WritePin+0x5a>
     fa6:	94 c0       	rjmp	.+296    	; 0x10d0 <DIO_WritePin+0x172>
     fa8:	82 30       	cpi	r24, 0x02	; 2
     faa:	91 05       	cpc	r25, r1
     fac:	09 f4       	brne	.+2      	; 0xfb0 <DIO_WritePin+0x52>
     fae:	4a c0       	rjmp	.+148    	; 0x1044 <DIO_WritePin+0xe6>
     fb0:	03 97       	sbiw	r24, 0x03	; 3
     fb2:	09 f4       	brne	.+2      	; 0xfb6 <DIO_WritePin+0x58>
     fb4:	6a c0       	rjmp	.+212    	; 0x108a <DIO_WritePin+0x12c>
     fb6:	8c c0       	rjmp	.+280    	; 0x10d0 <DIO_WritePin+0x172>
		{
			case PORT_A:
				BIT_WRITE(PORTA,PinNo,PinValue);
     fb8:	8b e3       	ldi	r24, 0x3B	; 59
     fba:	90 e0       	ldi	r25, 0x00	; 0
     fbc:	2b e3       	ldi	r18, 0x3B	; 59
     fbe:	30 e0       	ldi	r19, 0x00	; 0
     fc0:	f9 01       	movw	r30, r18
     fc2:	20 81       	ld	r18, Z
     fc4:	62 2f       	mov	r22, r18
     fc6:	2b 81       	ldd	r18, Y+3	; 0x03
     fc8:	42 2f       	mov	r20, r18
     fca:	50 e0       	ldi	r21, 0x00	; 0
     fcc:	21 e0       	ldi	r18, 0x01	; 1
     fce:	30 e0       	ldi	r19, 0x00	; 0
     fd0:	02 c0       	rjmp	.+4      	; 0xfd6 <DIO_WritePin+0x78>
     fd2:	22 0f       	add	r18, r18
     fd4:	33 1f       	adc	r19, r19
     fd6:	4a 95       	dec	r20
     fd8:	e2 f7       	brpl	.-8      	; 0xfd2 <DIO_WritePin+0x74>
     fda:	20 95       	com	r18
     fdc:	62 23       	and	r22, r18
     fde:	2c 81       	ldd	r18, Y+4	; 0x04
     fe0:	22 2f       	mov	r18, r18
     fe2:	30 e0       	ldi	r19, 0x00	; 0
     fe4:	4b 81       	ldd	r20, Y+3	; 0x03
     fe6:	44 2f       	mov	r20, r20
     fe8:	50 e0       	ldi	r21, 0x00	; 0
     fea:	02 c0       	rjmp	.+4      	; 0xff0 <DIO_WritePin+0x92>
     fec:	22 0f       	add	r18, r18
     fee:	33 1f       	adc	r19, r19
     ff0:	4a 95       	dec	r20
     ff2:	e2 f7       	brpl	.-8      	; 0xfec <DIO_WritePin+0x8e>
     ff4:	26 2b       	or	r18, r22
     ff6:	fc 01       	movw	r30, r24
     ff8:	20 83       	st	Z, r18
				u8_ErrorState=ERROR_OK;
     ffa:	19 82       	std	Y+1, r1	; 0x01
				break;
     ffc:	6c c0       	rjmp	.+216    	; 0x10d6 <DIO_WritePin+0x178>
			case PORT_B:
				BIT_WRITE(PORTB,PinNo,PinValue);
     ffe:	88 e3       	ldi	r24, 0x38	; 56
    1000:	90 e0       	ldi	r25, 0x00	; 0
    1002:	28 e3       	ldi	r18, 0x38	; 56
    1004:	30 e0       	ldi	r19, 0x00	; 0
    1006:	f9 01       	movw	r30, r18
    1008:	20 81       	ld	r18, Z
    100a:	62 2f       	mov	r22, r18
    100c:	2b 81       	ldd	r18, Y+3	; 0x03
    100e:	42 2f       	mov	r20, r18
    1010:	50 e0       	ldi	r21, 0x00	; 0
    1012:	21 e0       	ldi	r18, 0x01	; 1
    1014:	30 e0       	ldi	r19, 0x00	; 0
    1016:	02 c0       	rjmp	.+4      	; 0x101c <DIO_WritePin+0xbe>
    1018:	22 0f       	add	r18, r18
    101a:	33 1f       	adc	r19, r19
    101c:	4a 95       	dec	r20
    101e:	e2 f7       	brpl	.-8      	; 0x1018 <DIO_WritePin+0xba>
    1020:	20 95       	com	r18
    1022:	62 23       	and	r22, r18
    1024:	2c 81       	ldd	r18, Y+4	; 0x04
    1026:	22 2f       	mov	r18, r18
    1028:	30 e0       	ldi	r19, 0x00	; 0
    102a:	4b 81       	ldd	r20, Y+3	; 0x03
    102c:	44 2f       	mov	r20, r20
    102e:	50 e0       	ldi	r21, 0x00	; 0
    1030:	02 c0       	rjmp	.+4      	; 0x1036 <DIO_WritePin+0xd8>
    1032:	22 0f       	add	r18, r18
    1034:	33 1f       	adc	r19, r19
    1036:	4a 95       	dec	r20
    1038:	e2 f7       	brpl	.-8      	; 0x1032 <DIO_WritePin+0xd4>
    103a:	26 2b       	or	r18, r22
    103c:	fc 01       	movw	r30, r24
    103e:	20 83       	st	Z, r18
				u8_ErrorState=ERROR_OK;
    1040:	19 82       	std	Y+1, r1	; 0x01
				break;
    1042:	49 c0       	rjmp	.+146    	; 0x10d6 <DIO_WritePin+0x178>
			case PORT_C:
				BIT_WRITE(PORTC,PinNo,PinValue);
    1044:	85 e3       	ldi	r24, 0x35	; 53
    1046:	90 e0       	ldi	r25, 0x00	; 0
    1048:	25 e3       	ldi	r18, 0x35	; 53
    104a:	30 e0       	ldi	r19, 0x00	; 0
    104c:	f9 01       	movw	r30, r18
    104e:	20 81       	ld	r18, Z
    1050:	62 2f       	mov	r22, r18
    1052:	2b 81       	ldd	r18, Y+3	; 0x03
    1054:	42 2f       	mov	r20, r18
    1056:	50 e0       	ldi	r21, 0x00	; 0
    1058:	21 e0       	ldi	r18, 0x01	; 1
    105a:	30 e0       	ldi	r19, 0x00	; 0
    105c:	02 c0       	rjmp	.+4      	; 0x1062 <DIO_WritePin+0x104>
    105e:	22 0f       	add	r18, r18
    1060:	33 1f       	adc	r19, r19
    1062:	4a 95       	dec	r20
    1064:	e2 f7       	brpl	.-8      	; 0x105e <DIO_WritePin+0x100>
    1066:	20 95       	com	r18
    1068:	62 23       	and	r22, r18
    106a:	2c 81       	ldd	r18, Y+4	; 0x04
    106c:	22 2f       	mov	r18, r18
    106e:	30 e0       	ldi	r19, 0x00	; 0
    1070:	4b 81       	ldd	r20, Y+3	; 0x03
    1072:	44 2f       	mov	r20, r20
    1074:	50 e0       	ldi	r21, 0x00	; 0
    1076:	02 c0       	rjmp	.+4      	; 0x107c <DIO_WritePin+0x11e>
    1078:	22 0f       	add	r18, r18
    107a:	33 1f       	adc	r19, r19
    107c:	4a 95       	dec	r20
    107e:	e2 f7       	brpl	.-8      	; 0x1078 <DIO_WritePin+0x11a>
    1080:	26 2b       	or	r18, r22
    1082:	fc 01       	movw	r30, r24
    1084:	20 83       	st	Z, r18
				u8_ErrorState=ERROR_OK;
    1086:	19 82       	std	Y+1, r1	; 0x01
				break;
    1088:	26 c0       	rjmp	.+76     	; 0x10d6 <DIO_WritePin+0x178>
			case PORT_D:
				BIT_WRITE(PORTD,PinNo,PinValue);
    108a:	82 e3       	ldi	r24, 0x32	; 50
    108c:	90 e0       	ldi	r25, 0x00	; 0
    108e:	22 e3       	ldi	r18, 0x32	; 50
    1090:	30 e0       	ldi	r19, 0x00	; 0
    1092:	f9 01       	movw	r30, r18
    1094:	20 81       	ld	r18, Z
    1096:	62 2f       	mov	r22, r18
    1098:	2b 81       	ldd	r18, Y+3	; 0x03
    109a:	42 2f       	mov	r20, r18
    109c:	50 e0       	ldi	r21, 0x00	; 0
    109e:	21 e0       	ldi	r18, 0x01	; 1
    10a0:	30 e0       	ldi	r19, 0x00	; 0
    10a2:	02 c0       	rjmp	.+4      	; 0x10a8 <DIO_WritePin+0x14a>
    10a4:	22 0f       	add	r18, r18
    10a6:	33 1f       	adc	r19, r19
    10a8:	4a 95       	dec	r20
    10aa:	e2 f7       	brpl	.-8      	; 0x10a4 <DIO_WritePin+0x146>
    10ac:	20 95       	com	r18
    10ae:	62 23       	and	r22, r18
    10b0:	2c 81       	ldd	r18, Y+4	; 0x04
    10b2:	22 2f       	mov	r18, r18
    10b4:	30 e0       	ldi	r19, 0x00	; 0
    10b6:	4b 81       	ldd	r20, Y+3	; 0x03
    10b8:	44 2f       	mov	r20, r20
    10ba:	50 e0       	ldi	r21, 0x00	; 0
    10bc:	02 c0       	rjmp	.+4      	; 0x10c2 <DIO_WritePin+0x164>
    10be:	22 0f       	add	r18, r18
    10c0:	33 1f       	adc	r19, r19
    10c2:	4a 95       	dec	r20
    10c4:	e2 f7       	brpl	.-8      	; 0x10be <DIO_WritePin+0x160>
    10c6:	26 2b       	or	r18, r22
    10c8:	fc 01       	movw	r30, r24
    10ca:	20 83       	st	Z, r18
				u8_ErrorState=ERROR_OK;
    10cc:	19 82       	std	Y+1, r1	; 0x01
				break;
    10ce:	03 c0       	rjmp	.+6      	; 0x10d6 <DIO_WritePin+0x178>
			default:
				u8_ErrorState=ERROR_NOK;
    10d0:	81 e0       	ldi	r24, 0x01	; 1
    10d2:	89 83       	std	Y+1, r24	; 0x01
				break;
    10d4:	00 00       	nop
		}
	}	
	return u8_ErrorState;
    10d6:	89 81       	ldd	r24, Y+1	; 0x01
}
    10d8:	0f 90       	pop	r0
    10da:	0f 90       	pop	r0
    10dc:	0f 90       	pop	r0
    10de:	0f 90       	pop	r0
    10e0:	df 91       	pop	r29
    10e2:	cf 91       	pop	r28
    10e4:	08 95       	ret

000010e6 <GetFreqPrescaleRatio>:
   /* clear the timer clock */
   *ptr_TimerControl &= ~(CLK_BITS);
   
   /* return success message. */
   return ERROR_OK;
}
    10e6:	cf 93       	push	r28
    10e8:	df 93       	push	r29
    10ea:	00 d0       	rcall	.+0      	; 0x10ec <GetFreqPrescaleRatio+0x6>
    10ec:	1f 92       	push	r1
    10ee:	cd b7       	in	r28, 0x3d	; 61
    10f0:	de b7       	in	r29, 0x3e	; 62
    10f2:	89 83       	std	Y+1, r24	; 0x01
    10f4:	7b 83       	std	Y+3, r23	; 0x03
    10f6:	6a 83       	std	Y+2, r22	; 0x02
    10f8:	89 81       	ldd	r24, Y+1	; 0x01
    10fa:	88 23       	and	r24, r24
    10fc:	21 f0       	breq	.+8      	; 0x1106 <GetFreqPrescaleRatio+0x20>
    10fe:	89 81       	ldd	r24, Y+1	; 0x01
    1100:	81 30       	cpi	r24, 0x01	; 1
    1102:	09 f0       	breq	.+2      	; 0x1106 <GetFreqPrescaleRatio+0x20>
    1104:	5f c0       	rjmp	.+190    	; 0x11c4 <GetFreqPrescaleRatio+0xde>
    1106:	89 81       	ldd	r24, Y+1	; 0x01
    1108:	28 2f       	mov	r18, r24
    110a:	30 e0       	ldi	r19, 0x00	; 0
    110c:	c9 01       	movw	r24, r18
    110e:	88 0f       	add	r24, r24
    1110:	99 1f       	adc	r25, r25
    1112:	82 0f       	add	r24, r18
    1114:	93 1f       	adc	r25, r19
    1116:	8a 52       	subi	r24, 0x2A	; 42
    1118:	9f 4f       	sbci	r25, 0xFF	; 255
    111a:	fc 01       	movw	r30, r24
    111c:	80 81       	ld	r24, Z
    111e:	88 2f       	mov	r24, r24
    1120:	90 e0       	ldi	r25, 0x00	; 0
    1122:	83 30       	cpi	r24, 0x03	; 3
    1124:	91 05       	cpc	r25, r1
    1126:	39 f1       	breq	.+78     	; 0x1176 <GetFreqPrescaleRatio+0x90>
    1128:	84 30       	cpi	r24, 0x04	; 4
    112a:	91 05       	cpc	r25, r1
    112c:	34 f4       	brge	.+12     	; 0x113a <GetFreqPrescaleRatio+0x54>
    112e:	81 30       	cpi	r24, 0x01	; 1
    1130:	91 05       	cpc	r25, r1
    1132:	49 f0       	breq	.+18     	; 0x1146 <GetFreqPrescaleRatio+0x60>
    1134:	02 97       	sbiw	r24, 0x02	; 2
    1136:	99 f0       	breq	.+38     	; 0x115e <GetFreqPrescaleRatio+0x78>
    1138:	42 c0       	rjmp	.+132    	; 0x11be <GetFreqPrescaleRatio+0xd8>
    113a:	84 30       	cpi	r24, 0x04	; 4
    113c:	91 05       	cpc	r25, r1
    113e:	39 f1       	breq	.+78     	; 0x118e <GetFreqPrescaleRatio+0xa8>
    1140:	05 97       	sbiw	r24, 0x05	; 5
    1142:	89 f1       	breq	.+98     	; 0x11a6 <GetFreqPrescaleRatio+0xc0>
    1144:	3c c0       	rjmp	.+120    	; 0x11be <GetFreqPrescaleRatio+0xd8>
    1146:	2a 81       	ldd	r18, Y+2	; 0x02
    1148:	3b 81       	ldd	r19, Y+3	; 0x03
    114a:	80 e0       	ldi	r24, 0x00	; 0
    114c:	90 e0       	ldi	r25, 0x00	; 0
    114e:	a0 e8       	ldi	r26, 0x80	; 128
    1150:	bd e3       	ldi	r27, 0x3D	; 61
    1152:	f9 01       	movw	r30, r18
    1154:	80 83       	st	Z, r24
    1156:	91 83       	std	Z+1, r25	; 0x01
    1158:	a2 83       	std	Z+2, r26	; 0x02
    115a:	b3 83       	std	Z+3, r27	; 0x03
    115c:	32 c0       	rjmp	.+100    	; 0x11c2 <GetFreqPrescaleRatio+0xdc>
    115e:	2a 81       	ldd	r18, Y+2	; 0x02
    1160:	3b 81       	ldd	r19, Y+3	; 0x03
    1162:	80 e0       	ldi	r24, 0x00	; 0
    1164:	90 e0       	ldi	r25, 0x00	; 0
    1166:	a0 e0       	ldi	r26, 0x00	; 0
    1168:	bf e3       	ldi	r27, 0x3F	; 63
    116a:	f9 01       	movw	r30, r18
    116c:	80 83       	st	Z, r24
    116e:	91 83       	std	Z+1, r25	; 0x01
    1170:	a2 83       	std	Z+2, r26	; 0x02
    1172:	b3 83       	std	Z+3, r27	; 0x03
    1174:	26 c0       	rjmp	.+76     	; 0x11c2 <GetFreqPrescaleRatio+0xdc>
    1176:	2a 81       	ldd	r18, Y+2	; 0x02
    1178:	3b 81       	ldd	r19, Y+3	; 0x03
    117a:	80 e0       	ldi	r24, 0x00	; 0
    117c:	90 e0       	ldi	r25, 0x00	; 0
    117e:	a0 e8       	ldi	r26, 0x80	; 128
    1180:	b0 e4       	ldi	r27, 0x40	; 64
    1182:	f9 01       	movw	r30, r18
    1184:	80 83       	st	Z, r24
    1186:	91 83       	std	Z+1, r25	; 0x01
    1188:	a2 83       	std	Z+2, r26	; 0x02
    118a:	b3 83       	std	Z+3, r27	; 0x03
    118c:	1a c0       	rjmp	.+52     	; 0x11c2 <GetFreqPrescaleRatio+0xdc>
    118e:	2a 81       	ldd	r18, Y+2	; 0x02
    1190:	3b 81       	ldd	r19, Y+3	; 0x03
    1192:	80 e0       	ldi	r24, 0x00	; 0
    1194:	90 e0       	ldi	r25, 0x00	; 0
    1196:	a0 e8       	ldi	r26, 0x80	; 128
    1198:	b1 e4       	ldi	r27, 0x41	; 65
    119a:	f9 01       	movw	r30, r18
    119c:	80 83       	st	Z, r24
    119e:	91 83       	std	Z+1, r25	; 0x01
    11a0:	a2 83       	std	Z+2, r26	; 0x02
    11a2:	b3 83       	std	Z+3, r27	; 0x03
    11a4:	0e c0       	rjmp	.+28     	; 0x11c2 <GetFreqPrescaleRatio+0xdc>
    11a6:	2a 81       	ldd	r18, Y+2	; 0x02
    11a8:	3b 81       	ldd	r19, Y+3	; 0x03
    11aa:	80 e0       	ldi	r24, 0x00	; 0
    11ac:	90 e0       	ldi	r25, 0x00	; 0
    11ae:	a0 e8       	ldi	r26, 0x80	; 128
    11b0:	b2 e4       	ldi	r27, 0x42	; 66
    11b2:	f9 01       	movw	r30, r18
    11b4:	80 83       	st	Z, r24
    11b6:	91 83       	std	Z+1, r25	; 0x01
    11b8:	a2 83       	std	Z+2, r26	; 0x02
    11ba:	b3 83       	std	Z+3, r27	; 0x03
    11bc:	02 c0       	rjmp	.+4      	; 0x11c2 <GetFreqPrescaleRatio+0xdc>
    11be:	8c ef       	ldi	r24, 0xFC	; 252
    11c0:	7d c0       	rjmp	.+250    	; 0x12bc <GetFreqPrescaleRatio+0x1d6>
    11c2:	7b c0       	rjmp	.+246    	; 0x12ba <GetFreqPrescaleRatio+0x1d4>
    11c4:	89 81       	ldd	r24, Y+1	; 0x01
    11c6:	82 30       	cpi	r24, 0x02	; 2
    11c8:	09 f0       	breq	.+2      	; 0x11cc <GetFreqPrescaleRatio+0xe6>
    11ca:	77 c0       	rjmp	.+238    	; 0x12ba <GetFreqPrescaleRatio+0x1d4>
    11cc:	89 81       	ldd	r24, Y+1	; 0x01
    11ce:	28 2f       	mov	r18, r24
    11d0:	30 e0       	ldi	r19, 0x00	; 0
    11d2:	c9 01       	movw	r24, r18
    11d4:	88 0f       	add	r24, r24
    11d6:	99 1f       	adc	r25, r25
    11d8:	82 0f       	add	r24, r18
    11da:	93 1f       	adc	r25, r19
    11dc:	8a 52       	subi	r24, 0x2A	; 42
    11de:	9f 4f       	sbci	r25, 0xFF	; 255
    11e0:	fc 01       	movw	r30, r24
    11e2:	80 81       	ld	r24, Z
    11e4:	88 2f       	mov	r24, r24
    11e6:	90 e0       	ldi	r25, 0x00	; 0
    11e8:	09 2e       	mov	r0, r25
    11ea:	00 0c       	add	r0, r0
    11ec:	aa 0b       	sbc	r26, r26
    11ee:	bb 0b       	sbc	r27, r27
    11f0:	41 e0       	ldi	r20, 0x01	; 1
    11f2:	50 e0       	ldi	r21, 0x00	; 0
    11f4:	26 e0       	ldi	r18, 0x06	; 6
    11f6:	30 e0       	ldi	r19, 0x00	; 0
    11f8:	84 1b       	sub	r24, r20
    11fa:	95 0b       	sbc	r25, r21
    11fc:	28 17       	cp	r18, r24
    11fe:	39 07       	cpc	r19, r25
    1200:	08 f4       	brcc	.+2      	; 0x1204 <GetFreqPrescaleRatio+0x11e>
    1202:	59 c0       	rjmp	.+178    	; 0x12b6 <GetFreqPrescaleRatio+0x1d0>
    1204:	86 5d       	subi	r24, 0xD6	; 214
    1206:	9f 4f       	sbci	r25, 0xFF	; 255
    1208:	fc 01       	movw	r30, r24
    120a:	0c 94 e4 10 	jmp	0x21c8	; 0x21c8 <__tablejump2__>
    120e:	2a 81       	ldd	r18, Y+2	; 0x02
    1210:	3b 81       	ldd	r19, Y+3	; 0x03
    1212:	80 e0       	ldi	r24, 0x00	; 0
    1214:	90 e0       	ldi	r25, 0x00	; 0
    1216:	a0 e8       	ldi	r26, 0x80	; 128
    1218:	bd e3       	ldi	r27, 0x3D	; 61
    121a:	f9 01       	movw	r30, r18
    121c:	80 83       	st	Z, r24
    121e:	91 83       	std	Z+1, r25	; 0x01
    1220:	a2 83       	std	Z+2, r26	; 0x02
    1222:	b3 83       	std	Z+3, r27	; 0x03
    1224:	4a c0       	rjmp	.+148    	; 0x12ba <GetFreqPrescaleRatio+0x1d4>
    1226:	2a 81       	ldd	r18, Y+2	; 0x02
    1228:	3b 81       	ldd	r19, Y+3	; 0x03
    122a:	80 e0       	ldi	r24, 0x00	; 0
    122c:	90 e0       	ldi	r25, 0x00	; 0
    122e:	a0 e0       	ldi	r26, 0x00	; 0
    1230:	bf e3       	ldi	r27, 0x3F	; 63
    1232:	f9 01       	movw	r30, r18
    1234:	80 83       	st	Z, r24
    1236:	91 83       	std	Z+1, r25	; 0x01
    1238:	a2 83       	std	Z+2, r26	; 0x02
    123a:	b3 83       	std	Z+3, r27	; 0x03
    123c:	3e c0       	rjmp	.+124    	; 0x12ba <GetFreqPrescaleRatio+0x1d4>
    123e:	2a 81       	ldd	r18, Y+2	; 0x02
    1240:	3b 81       	ldd	r19, Y+3	; 0x03
    1242:	80 e0       	ldi	r24, 0x00	; 0
    1244:	90 e0       	ldi	r25, 0x00	; 0
    1246:	a0 e0       	ldi	r26, 0x00	; 0
    1248:	b0 e4       	ldi	r27, 0x40	; 64
    124a:	f9 01       	movw	r30, r18
    124c:	80 83       	st	Z, r24
    124e:	91 83       	std	Z+1, r25	; 0x01
    1250:	a2 83       	std	Z+2, r26	; 0x02
    1252:	b3 83       	std	Z+3, r27	; 0x03
    1254:	32 c0       	rjmp	.+100    	; 0x12ba <GetFreqPrescaleRatio+0x1d4>
    1256:	2a 81       	ldd	r18, Y+2	; 0x02
    1258:	3b 81       	ldd	r19, Y+3	; 0x03
    125a:	80 e0       	ldi	r24, 0x00	; 0
    125c:	90 e0       	ldi	r25, 0x00	; 0
    125e:	a0 e8       	ldi	r26, 0x80	; 128
    1260:	b0 e4       	ldi	r27, 0x40	; 64
    1262:	f9 01       	movw	r30, r18
    1264:	80 83       	st	Z, r24
    1266:	91 83       	std	Z+1, r25	; 0x01
    1268:	a2 83       	std	Z+2, r26	; 0x02
    126a:	b3 83       	std	Z+3, r27	; 0x03
    126c:	26 c0       	rjmp	.+76     	; 0x12ba <GetFreqPrescaleRatio+0x1d4>
    126e:	2a 81       	ldd	r18, Y+2	; 0x02
    1270:	3b 81       	ldd	r19, Y+3	; 0x03
    1272:	80 e0       	ldi	r24, 0x00	; 0
    1274:	90 e0       	ldi	r25, 0x00	; 0
    1276:	a0 e0       	ldi	r26, 0x00	; 0
    1278:	b1 e4       	ldi	r27, 0x41	; 65
    127a:	f9 01       	movw	r30, r18
    127c:	80 83       	st	Z, r24
    127e:	91 83       	std	Z+1, r25	; 0x01
    1280:	a2 83       	std	Z+2, r26	; 0x02
    1282:	b3 83       	std	Z+3, r27	; 0x03
    1284:	1a c0       	rjmp	.+52     	; 0x12ba <GetFreqPrescaleRatio+0x1d4>
    1286:	2a 81       	ldd	r18, Y+2	; 0x02
    1288:	3b 81       	ldd	r19, Y+3	; 0x03
    128a:	80 e0       	ldi	r24, 0x00	; 0
    128c:	90 e0       	ldi	r25, 0x00	; 0
    128e:	a0 e8       	ldi	r26, 0x80	; 128
    1290:	b1 e4       	ldi	r27, 0x41	; 65
    1292:	f9 01       	movw	r30, r18
    1294:	80 83       	st	Z, r24
    1296:	91 83       	std	Z+1, r25	; 0x01
    1298:	a2 83       	std	Z+2, r26	; 0x02
    129a:	b3 83       	std	Z+3, r27	; 0x03
    129c:	0e c0       	rjmp	.+28     	; 0x12ba <GetFreqPrescaleRatio+0x1d4>
    129e:	2a 81       	ldd	r18, Y+2	; 0x02
    12a0:	3b 81       	ldd	r19, Y+3	; 0x03
    12a2:	80 e0       	ldi	r24, 0x00	; 0
    12a4:	90 e0       	ldi	r25, 0x00	; 0
    12a6:	a0 e8       	ldi	r26, 0x80	; 128
    12a8:	b2 e4       	ldi	r27, 0x42	; 66
    12aa:	f9 01       	movw	r30, r18
    12ac:	80 83       	st	Z, r24
    12ae:	91 83       	std	Z+1, r25	; 0x01
    12b0:	a2 83       	std	Z+2, r26	; 0x02
    12b2:	b3 83       	std	Z+3, r27	; 0x03
    12b4:	02 c0       	rjmp	.+4      	; 0x12ba <GetFreqPrescaleRatio+0x1d4>
    12b6:	8c ef       	ldi	r24, 0xFC	; 252
    12b8:	01 c0       	rjmp	.+2      	; 0x12bc <GetFreqPrescaleRatio+0x1d6>
    12ba:	80 e0       	ldi	r24, 0x00	; 0
    12bc:	0f 90       	pop	r0
    12be:	0f 90       	pop	r0
    12c0:	0f 90       	pop	r0
    12c2:	df 91       	pop	r29
    12c4:	cf 91       	pop	r28
    12c6:	08 95       	ret

000012c8 <TIM_Init>:
    12c8:	cf 93       	push	r28
    12ca:	df 93       	push	r29
    12cc:	1f 92       	push	r1
    12ce:	cd b7       	in	r28, 0x3d	; 61
    12d0:	de b7       	in	r29, 0x3e	; 62
    12d2:	89 83       	std	Y+1, r24	; 0x01
    12d4:	89 81       	ldd	r24, Y+1	; 0x01
    12d6:	88 2f       	mov	r24, r24
    12d8:	90 e0       	ldi	r25, 0x00	; 0
    12da:	81 30       	cpi	r24, 0x01	; 1
    12dc:	91 05       	cpc	r25, r1
    12de:	b1 f1       	breq	.+108    	; 0x134c <TIM_Init+0x84>
    12e0:	82 30       	cpi	r24, 0x02	; 2
    12e2:	91 05       	cpc	r25, r1
    12e4:	09 f4       	brne	.+2      	; 0x12e8 <TIM_Init+0x20>
    12e6:	6a c0       	rjmp	.+212    	; 0x13bc <TIM_Init+0xf4>
    12e8:	89 2b       	or	r24, r25
    12ea:	09 f0       	breq	.+2      	; 0x12ee <TIM_Init+0x26>
    12ec:	a2 c0       	rjmp	.+324    	; 0x1432 <TIM_Init+0x16a>
    12ee:	43 e5       	ldi	r20, 0x53	; 83
    12f0:	50 e0       	ldi	r21, 0x00	; 0
    12f2:	89 81       	ldd	r24, Y+1	; 0x01
    12f4:	28 2f       	mov	r18, r24
    12f6:	30 e0       	ldi	r19, 0x00	; 0
    12f8:	c9 01       	movw	r24, r18
    12fa:	88 0f       	add	r24, r24
    12fc:	99 1f       	adc	r25, r25
    12fe:	82 0f       	add	r24, r18
    1300:	93 1f       	adc	r25, r19
    1302:	8c 52       	subi	r24, 0x2C	; 44
    1304:	9f 4f       	sbci	r25, 0xFF	; 255
    1306:	fc 01       	movw	r30, r24
    1308:	80 81       	ld	r24, Z
    130a:	fa 01       	movw	r30, r20
    130c:	80 83       	st	Z, r24
    130e:	89 e5       	ldi	r24, 0x59	; 89
    1310:	90 e0       	ldi	r25, 0x00	; 0
    1312:	29 e5       	ldi	r18, 0x59	; 89
    1314:	30 e0       	ldi	r19, 0x00	; 0
    1316:	f9 01       	movw	r30, r18
    1318:	20 81       	ld	r18, Z
    131a:	2c 7f       	andi	r18, 0xFC	; 252
    131c:	fc 01       	movw	r30, r24
    131e:	20 83       	st	Z, r18
    1320:	49 e5       	ldi	r20, 0x59	; 89
    1322:	50 e0       	ldi	r21, 0x00	; 0
    1324:	89 e5       	ldi	r24, 0x59	; 89
    1326:	90 e0       	ldi	r25, 0x00	; 0
    1328:	fc 01       	movw	r30, r24
    132a:	60 81       	ld	r22, Z
    132c:	89 81       	ldd	r24, Y+1	; 0x01
    132e:	28 2f       	mov	r18, r24
    1330:	30 e0       	ldi	r19, 0x00	; 0
    1332:	c9 01       	movw	r24, r18
    1334:	88 0f       	add	r24, r24
    1336:	99 1f       	adc	r25, r25
    1338:	82 0f       	add	r24, r18
    133a:	93 1f       	adc	r25, r19
    133c:	8b 52       	subi	r24, 0x2B	; 43
    133e:	9f 4f       	sbci	r25, 0xFF	; 255
    1340:	fc 01       	movw	r30, r24
    1342:	80 81       	ld	r24, Z
    1344:	86 2b       	or	r24, r22
    1346:	fa 01       	movw	r30, r20
    1348:	80 83       	st	Z, r24
    134a:	75 c0       	rjmp	.+234    	; 0x1436 <TIM_Init+0x16e>
    134c:	4e e4       	ldi	r20, 0x4E	; 78
    134e:	50 e0       	ldi	r21, 0x00	; 0
    1350:	89 81       	ldd	r24, Y+1	; 0x01
    1352:	28 2f       	mov	r18, r24
    1354:	30 e0       	ldi	r19, 0x00	; 0
    1356:	c9 01       	movw	r24, r18
    1358:	88 0f       	add	r24, r24
    135a:	99 1f       	adc	r25, r25
    135c:	82 0f       	add	r24, r18
    135e:	93 1f       	adc	r25, r19
    1360:	8c 52       	subi	r24, 0x2C	; 44
    1362:	9f 4f       	sbci	r25, 0xFF	; 255
    1364:	fc 01       	movw	r30, r24
    1366:	80 81       	ld	r24, Z
    1368:	fa 01       	movw	r30, r20
    136a:	80 83       	st	Z, r24
    136c:	89 e5       	ldi	r24, 0x59	; 89
    136e:	90 e0       	ldi	r25, 0x00	; 0
    1370:	29 e5       	ldi	r18, 0x59	; 89
    1372:	30 e0       	ldi	r19, 0x00	; 0
    1374:	f9 01       	movw	r30, r18
    1376:	20 81       	ld	r18, Z
    1378:	27 7e       	andi	r18, 0xE7	; 231
    137a:	fc 01       	movw	r30, r24
    137c:	20 83       	st	Z, r18
    137e:	49 e5       	ldi	r20, 0x59	; 89
    1380:	50 e0       	ldi	r21, 0x00	; 0
    1382:	89 e5       	ldi	r24, 0x59	; 89
    1384:	90 e0       	ldi	r25, 0x00	; 0
    1386:	fc 01       	movw	r30, r24
    1388:	80 81       	ld	r24, Z
    138a:	68 2f       	mov	r22, r24
    138c:	89 81       	ldd	r24, Y+1	; 0x01
    138e:	28 2f       	mov	r18, r24
    1390:	30 e0       	ldi	r19, 0x00	; 0
    1392:	c9 01       	movw	r24, r18
    1394:	88 0f       	add	r24, r24
    1396:	99 1f       	adc	r25, r25
    1398:	82 0f       	add	r24, r18
    139a:	93 1f       	adc	r25, r19
    139c:	8b 52       	subi	r24, 0x2B	; 43
    139e:	9f 4f       	sbci	r25, 0xFF	; 255
    13a0:	fc 01       	movw	r30, r24
    13a2:	80 81       	ld	r24, Z
    13a4:	88 2f       	mov	r24, r24
    13a6:	90 e0       	ldi	r25, 0x00	; 0
    13a8:	88 0f       	add	r24, r24
    13aa:	99 1f       	adc	r25, r25
    13ac:	88 0f       	add	r24, r24
    13ae:	99 1f       	adc	r25, r25
    13b0:	88 0f       	add	r24, r24
    13b2:	99 1f       	adc	r25, r25
    13b4:	86 2b       	or	r24, r22
    13b6:	fa 01       	movw	r30, r20
    13b8:	80 83       	st	Z, r24
    13ba:	3d c0       	rjmp	.+122    	; 0x1436 <TIM_Init+0x16e>
    13bc:	45 e4       	ldi	r20, 0x45	; 69
    13be:	50 e0       	ldi	r21, 0x00	; 0
    13c0:	89 81       	ldd	r24, Y+1	; 0x01
    13c2:	28 2f       	mov	r18, r24
    13c4:	30 e0       	ldi	r19, 0x00	; 0
    13c6:	c9 01       	movw	r24, r18
    13c8:	88 0f       	add	r24, r24
    13ca:	99 1f       	adc	r25, r25
    13cc:	82 0f       	add	r24, r18
    13ce:	93 1f       	adc	r25, r19
    13d0:	8c 52       	subi	r24, 0x2C	; 44
    13d2:	9f 4f       	sbci	r25, 0xFF	; 255
    13d4:	fc 01       	movw	r30, r24
    13d6:	80 81       	ld	r24, Z
    13d8:	fa 01       	movw	r30, r20
    13da:	80 83       	st	Z, r24
    13dc:	89 e5       	ldi	r24, 0x59	; 89
    13de:	90 e0       	ldi	r25, 0x00	; 0
    13e0:	29 e5       	ldi	r18, 0x59	; 89
    13e2:	30 e0       	ldi	r19, 0x00	; 0
    13e4:	f9 01       	movw	r30, r18
    13e6:	20 81       	ld	r18, Z
    13e8:	2f 73       	andi	r18, 0x3F	; 63
    13ea:	fc 01       	movw	r30, r24
    13ec:	20 83       	st	Z, r18
    13ee:	49 e5       	ldi	r20, 0x59	; 89
    13f0:	50 e0       	ldi	r21, 0x00	; 0
    13f2:	89 e5       	ldi	r24, 0x59	; 89
    13f4:	90 e0       	ldi	r25, 0x00	; 0
    13f6:	fc 01       	movw	r30, r24
    13f8:	80 81       	ld	r24, Z
    13fa:	68 2f       	mov	r22, r24
    13fc:	89 81       	ldd	r24, Y+1	; 0x01
    13fe:	28 2f       	mov	r18, r24
    1400:	30 e0       	ldi	r19, 0x00	; 0
    1402:	c9 01       	movw	r24, r18
    1404:	88 0f       	add	r24, r24
    1406:	99 1f       	adc	r25, r25
    1408:	82 0f       	add	r24, r18
    140a:	93 1f       	adc	r25, r19
    140c:	8b 52       	subi	r24, 0x2B	; 43
    140e:	9f 4f       	sbci	r25, 0xFF	; 255
    1410:	fc 01       	movw	r30, r24
    1412:	80 81       	ld	r24, Z
    1414:	88 2f       	mov	r24, r24
    1416:	90 e0       	ldi	r25, 0x00	; 0
    1418:	00 24       	eor	r0, r0
    141a:	96 95       	lsr	r25
    141c:	87 95       	ror	r24
    141e:	07 94       	ror	r0
    1420:	96 95       	lsr	r25
    1422:	87 95       	ror	r24
    1424:	07 94       	ror	r0
    1426:	98 2f       	mov	r25, r24
    1428:	80 2d       	mov	r24, r0
    142a:	86 2b       	or	r24, r22
    142c:	fa 01       	movw	r30, r20
    142e:	80 83       	st	Z, r24
    1430:	02 c0       	rjmp	.+4      	; 0x1436 <TIM_Init+0x16e>
    1432:	8e ef       	ldi	r24, 0xFE	; 254
    1434:	01 c0       	rjmp	.+2      	; 0x1438 <TIM_Init+0x170>
    1436:	80 e0       	ldi	r24, 0x00	; 0
    1438:	0f 90       	pop	r0
    143a:	df 91       	pop	r29
    143c:	cf 91       	pop	r28
    143e:	08 95       	ret

00001440 <TIM_Start>:
    1440:	cf 93       	push	r28
    1442:	df 93       	push	r29
    1444:	cd b7       	in	r28, 0x3d	; 61
    1446:	de b7       	in	r29, 0x3e	; 62
    1448:	27 97       	sbiw	r28, 0x07	; 7
    144a:	0f b6       	in	r0, 0x3f	; 63
    144c:	f8 94       	cli
    144e:	de bf       	out	0x3e, r29	; 62
    1450:	0f be       	out	0x3f, r0	; 63
    1452:	cd bf       	out	0x3d, r28	; 61
    1454:	8d 83       	std	Y+5, r24	; 0x05
    1456:	7f 83       	std	Y+7, r23	; 0x07
    1458:	6e 83       	std	Y+6, r22	; 0x06
    145a:	1a 82       	std	Y+2, r1	; 0x02
    145c:	19 82       	std	Y+1, r1	; 0x01
    145e:	1c 82       	std	Y+4, r1	; 0x04
    1460:	1b 82       	std	Y+3, r1	; 0x03
    1462:	8d 81       	ldd	r24, Y+5	; 0x05
    1464:	88 2f       	mov	r24, r24
    1466:	90 e0       	ldi	r25, 0x00	; 0
    1468:	81 30       	cpi	r24, 0x01	; 1
    146a:	91 05       	cpc	r25, r1
    146c:	71 f0       	breq	.+28     	; 0x148a <TIM_Start+0x4a>
    146e:	82 30       	cpi	r24, 0x02	; 2
    1470:	91 05       	cpc	r25, r1
    1472:	a1 f0       	breq	.+40     	; 0x149c <TIM_Start+0x5c>
    1474:	89 2b       	or	r24, r25
    1476:	d9 f4       	brne	.+54     	; 0x14ae <TIM_Start+0x6e>
    1478:	83 e5       	ldi	r24, 0x53	; 83
    147a:	90 e0       	ldi	r25, 0x00	; 0
    147c:	9a 83       	std	Y+2, r25	; 0x02
    147e:	89 83       	std	Y+1, r24	; 0x01
    1480:	82 e5       	ldi	r24, 0x52	; 82
    1482:	90 e0       	ldi	r25, 0x00	; 0
    1484:	9c 83       	std	Y+4, r25	; 0x04
    1486:	8b 83       	std	Y+3, r24	; 0x03
    1488:	14 c0       	rjmp	.+40     	; 0x14b2 <TIM_Start+0x72>
    148a:	8e e4       	ldi	r24, 0x4E	; 78
    148c:	90 e0       	ldi	r25, 0x00	; 0
    148e:	9a 83       	std	Y+2, r25	; 0x02
    1490:	89 83       	std	Y+1, r24	; 0x01
    1492:	8c e4       	ldi	r24, 0x4C	; 76
    1494:	90 e0       	ldi	r25, 0x00	; 0
    1496:	9c 83       	std	Y+4, r25	; 0x04
    1498:	8b 83       	std	Y+3, r24	; 0x03
    149a:	0b c0       	rjmp	.+22     	; 0x14b2 <TIM_Start+0x72>
    149c:	85 e4       	ldi	r24, 0x45	; 69
    149e:	90 e0       	ldi	r25, 0x00	; 0
    14a0:	9a 83       	std	Y+2, r25	; 0x02
    14a2:	89 83       	std	Y+1, r24	; 0x01
    14a4:	84 e4       	ldi	r24, 0x44	; 68
    14a6:	90 e0       	ldi	r25, 0x00	; 0
    14a8:	9c 83       	std	Y+4, r25	; 0x04
    14aa:	8b 83       	std	Y+3, r24	; 0x03
    14ac:	02 c0       	rjmp	.+4      	; 0x14b2 <TIM_Start+0x72>
    14ae:	8e ef       	ldi	r24, 0xFE	; 254
    14b0:	1e c0       	rjmp	.+60     	; 0x14ee <TIM_Start+0xae>
    14b2:	8b 81       	ldd	r24, Y+3	; 0x03
    14b4:	9c 81       	ldd	r25, Y+4	; 0x04
    14b6:	2e 81       	ldd	r18, Y+6	; 0x06
    14b8:	3f 81       	ldd	r19, Y+7	; 0x07
    14ba:	fc 01       	movw	r30, r24
    14bc:	31 83       	std	Z+1, r19	; 0x01
    14be:	20 83       	st	Z, r18
    14c0:	89 81       	ldd	r24, Y+1	; 0x01
    14c2:	9a 81       	ldd	r25, Y+2	; 0x02
    14c4:	fc 01       	movw	r30, r24
    14c6:	40 81       	ld	r20, Z
    14c8:	8d 81       	ldd	r24, Y+5	; 0x05
    14ca:	28 2f       	mov	r18, r24
    14cc:	30 e0       	ldi	r19, 0x00	; 0
    14ce:	c9 01       	movw	r24, r18
    14d0:	88 0f       	add	r24, r24
    14d2:	99 1f       	adc	r25, r25
    14d4:	82 0f       	add	r24, r18
    14d6:	93 1f       	adc	r25, r19
    14d8:	8a 52       	subi	r24, 0x2A	; 42
    14da:	9f 4f       	sbci	r25, 0xFF	; 255
    14dc:	fc 01       	movw	r30, r24
    14de:	80 81       	ld	r24, Z
    14e0:	24 2f       	mov	r18, r20
    14e2:	28 2b       	or	r18, r24
    14e4:	89 81       	ldd	r24, Y+1	; 0x01
    14e6:	9a 81       	ldd	r25, Y+2	; 0x02
    14e8:	fc 01       	movw	r30, r24
    14ea:	20 83       	st	Z, r18
    14ec:	80 e0       	ldi	r24, 0x00	; 0
    14ee:	27 96       	adiw	r28, 0x07	; 7
    14f0:	0f b6       	in	r0, 0x3f	; 63
    14f2:	f8 94       	cli
    14f4:	de bf       	out	0x3e, r29	; 62
    14f6:	0f be       	out	0x3f, r0	; 63
    14f8:	cd bf       	out	0x3d, r28	; 61
    14fa:	df 91       	pop	r29
    14fc:	cf 91       	pop	r28
    14fe:	08 95       	ret

00001500 <TIM_GetStatus>:
* @param [out] FlagStatus  -  pointer to the variable to save the timer status in it.
*
* @return function error state.
*/
ERROR_STATE_t TIM_GetStatus(TIM_CH_t TIM_channel, uint8_t* FlagStatus)
{
    1500:	cf 93       	push	r28
    1502:	df 93       	push	r29
    1504:	00 d0       	rcall	.+0      	; 0x1506 <TIM_GetStatus+0x6>
    1506:	1f 92       	push	r1
    1508:	cd b7       	in	r28, 0x3d	; 61
    150a:	de b7       	in	r29, 0x3e	; 62
    150c:	89 83       	std	Y+1, r24	; 0x01
    150e:	7b 83       	std	Y+3, r23	; 0x03
    1510:	6a 83       	std	Y+2, r22	; 0x02
   if(NULL_PTR == FlagStatus)
    1512:	8a 81       	ldd	r24, Y+2	; 0x02
    1514:	9b 81       	ldd	r25, Y+3	; 0x03
    1516:	89 2b       	or	r24, r25
    1518:	11 f4       	brne	.+4      	; 0x151e <TIM_GetStatus+0x1e>
   {
      return TIMER_E_NULL_PTR;
    151a:	8f ef       	ldi	r24, 0xFF	; 255
    151c:	20 c1       	rjmp	.+576    	; 0x175e <TIM_GetStatus+0x25e>
   }
   
   /* sets the registers pointers according to the required timer. */
   switch(TIM_channel)
    151e:	89 81       	ldd	r24, Y+1	; 0x01
    1520:	88 2f       	mov	r24, r24
    1522:	90 e0       	ldi	r25, 0x00	; 0
    1524:	81 30       	cpi	r24, 0x01	; 1
    1526:	91 05       	cpc	r25, r1
    1528:	09 f4       	brne	.+2      	; 0x152c <TIM_GetStatus+0x2c>
    152a:	59 c0       	rjmp	.+178    	; 0x15de <TIM_GetStatus+0xde>
    152c:	82 30       	cpi	r24, 0x02	; 2
    152e:	91 05       	cpc	r25, r1
    1530:	09 f4       	brne	.+2      	; 0x1534 <TIM_GetStatus+0x34>
    1532:	c0 c0       	rjmp	.+384    	; 0x16b4 <TIM_GetStatus+0x1b4>
    1534:	89 2b       	or	r24, r25
    1536:	09 f0       	breq	.+2      	; 0x153a <TIM_GetStatus+0x3a>
    1538:	0a c1       	rjmp	.+532    	; 0x174e <TIM_GetStatus+0x24e>
   {
      case TIMER_0:
         if(gastr_Timer_Config[TIM_channel].u8_mode == NORMAL_MODE)
    153a:	89 81       	ldd	r24, Y+1	; 0x01
    153c:	28 2f       	mov	r18, r24
    153e:	30 e0       	ldi	r19, 0x00	; 0
    1540:	c9 01       	movw	r24, r18
    1542:	88 0f       	add	r24, r24
    1544:	99 1f       	adc	r25, r25
    1546:	82 0f       	add	r24, r18
    1548:	93 1f       	adc	r25, r19
    154a:	8c 52       	subi	r24, 0x2C	; 44
    154c:	9f 4f       	sbci	r25, 0xFF	; 255
    154e:	fc 01       	movw	r30, r24
    1550:	80 81       	ld	r24, Z
    1552:	88 23       	and	r24, r24
    1554:	d1 f4       	brne	.+52     	; 0x158a <TIM_GetStatus+0x8a>
         {
            if( TIFR & TIMER_0_OVERFLOW_FLAG )
    1556:	88 e5       	ldi	r24, 0x58	; 88
    1558:	90 e0       	ldi	r25, 0x00	; 0
    155a:	fc 01       	movw	r30, r24
    155c:	80 81       	ld	r24, Z
    155e:	88 2f       	mov	r24, r24
    1560:	90 e0       	ldi	r25, 0x00	; 0
    1562:	81 70       	andi	r24, 0x01	; 1
    1564:	99 27       	eor	r25, r25
    1566:	89 2b       	or	r24, r25
    1568:	71 f0       	breq	.+28     	; 0x1586 <TIM_GetStatus+0x86>
            {
               *FlagStatus = TIMER_OVERFLOW_FLAG;
    156a:	8a 81       	ldd	r24, Y+2	; 0x02
    156c:	9b 81       	ldd	r25, Y+3	; 0x03
    156e:	fc 01       	movw	r30, r24
    1570:	10 82       	st	Z, r1
               TIFR |= TIMER_0_OVERFLOW_FLAG;
    1572:	88 e5       	ldi	r24, 0x58	; 88
    1574:	90 e0       	ldi	r25, 0x00	; 0
    1576:	28 e5       	ldi	r18, 0x58	; 88
    1578:	30 e0       	ldi	r19, 0x00	; 0
    157a:	f9 01       	movw	r30, r18
    157c:	20 81       	ld	r18, Z
    157e:	21 60       	ori	r18, 0x01	; 1
    1580:	fc 01       	movw	r30, r24
    1582:	20 83       	st	Z, r18
            else
            {
               return TIMER_E_PENDING;
            }
         }
         break;
    1584:	e6 c0       	rjmp	.+460    	; 0x1752 <TIM_GetStatus+0x252>
               *FlagStatus = TIMER_OVERFLOW_FLAG;
               TIFR |= TIMER_0_OVERFLOW_FLAG;
            }
            else
            {
               return TIMER_E_PENDING;
    1586:	8d ef       	ldi	r24, 0xFD	; 253
    1588:	ea c0       	rjmp	.+468    	; 0x175e <TIM_GetStatus+0x25e>
            }
         }
         else if(gastr_Timer_Config[TIM_channel].u8_mode == COMPARE_MATCH_MODE)
    158a:	89 81       	ldd	r24, Y+1	; 0x01
    158c:	28 2f       	mov	r18, r24
    158e:	30 e0       	ldi	r19, 0x00	; 0
    1590:	c9 01       	movw	r24, r18
    1592:	88 0f       	add	r24, r24
    1594:	99 1f       	adc	r25, r25
    1596:	82 0f       	add	r24, r18
    1598:	93 1f       	adc	r25, r19
    159a:	8c 52       	subi	r24, 0x2C	; 44
    159c:	9f 4f       	sbci	r25, 0xFF	; 255
    159e:	fc 01       	movw	r30, r24
    15a0:	80 81       	ld	r24, Z
    15a2:	88 30       	cpi	r24, 0x08	; 8
    15a4:	09 f0       	breq	.+2      	; 0x15a8 <TIM_GetStatus+0xa8>
    15a6:	d5 c0       	rjmp	.+426    	; 0x1752 <TIM_GetStatus+0x252>
         {
            if(TIFR & TIMER_0_COMPARE_FLAG)
    15a8:	88 e5       	ldi	r24, 0x58	; 88
    15aa:	90 e0       	ldi	r25, 0x00	; 0
    15ac:	fc 01       	movw	r30, r24
    15ae:	80 81       	ld	r24, Z
    15b0:	88 2f       	mov	r24, r24
    15b2:	90 e0       	ldi	r25, 0x00	; 0
    15b4:	82 70       	andi	r24, 0x02	; 2
    15b6:	99 27       	eor	r25, r25
    15b8:	89 2b       	or	r24, r25
    15ba:	79 f0       	breq	.+30     	; 0x15da <TIM_GetStatus+0xda>
            {
               *FlagStatus = TIMER_COMPARE_FLAG;
    15bc:	8a 81       	ldd	r24, Y+2	; 0x02
    15be:	9b 81       	ldd	r25, Y+3	; 0x03
    15c0:	21 e0       	ldi	r18, 0x01	; 1
    15c2:	fc 01       	movw	r30, r24
    15c4:	20 83       	st	Z, r18
               TIFR |= TIMER_0_COMPARE_FLAG;
    15c6:	88 e5       	ldi	r24, 0x58	; 88
    15c8:	90 e0       	ldi	r25, 0x00	; 0
    15ca:	28 e5       	ldi	r18, 0x58	; 88
    15cc:	30 e0       	ldi	r19, 0x00	; 0
    15ce:	f9 01       	movw	r30, r18
    15d0:	20 81       	ld	r18, Z
    15d2:	22 60       	ori	r18, 0x02	; 2
    15d4:	fc 01       	movw	r30, r24
    15d6:	20 83       	st	Z, r18
            else
            {
               return TIMER_E_PENDING;
            }
         }
         break;
    15d8:	bc c0       	rjmp	.+376    	; 0x1752 <TIM_GetStatus+0x252>
               *FlagStatus = TIMER_COMPARE_FLAG;
               TIFR |= TIMER_0_COMPARE_FLAG;
            }
            else
            {
               return TIMER_E_PENDING;
    15da:	8d ef       	ldi	r24, 0xFD	; 253
    15dc:	c0 c0       	rjmp	.+384    	; 0x175e <TIM_GetStatus+0x25e>
            }
         }
         break;
      case TIMER_1:
         if(gastr_Timer_Config[TIM_channel].u8_mode == NORMAL_MODE)
    15de:	89 81       	ldd	r24, Y+1	; 0x01
    15e0:	28 2f       	mov	r18, r24
    15e2:	30 e0       	ldi	r19, 0x00	; 0
    15e4:	c9 01       	movw	r24, r18
    15e6:	88 0f       	add	r24, r24
    15e8:	99 1f       	adc	r25, r25
    15ea:	82 0f       	add	r24, r18
    15ec:	93 1f       	adc	r25, r19
    15ee:	8c 52       	subi	r24, 0x2C	; 44
    15f0:	9f 4f       	sbci	r25, 0xFF	; 255
    15f2:	fc 01       	movw	r30, r24
    15f4:	80 81       	ld	r24, Z
    15f6:	88 23       	and	r24, r24
    15f8:	d1 f4       	brne	.+52     	; 0x162e <TIM_GetStatus+0x12e>
         {
            if( TIFR & TIMER_1_OVERFLOW_FLAG )
    15fa:	88 e5       	ldi	r24, 0x58	; 88
    15fc:	90 e0       	ldi	r25, 0x00	; 0
    15fe:	fc 01       	movw	r30, r24
    1600:	80 81       	ld	r24, Z
    1602:	88 2f       	mov	r24, r24
    1604:	90 e0       	ldi	r25, 0x00	; 0
    1606:	84 70       	andi	r24, 0x04	; 4
    1608:	99 27       	eor	r25, r25
    160a:	89 2b       	or	r24, r25
    160c:	71 f0       	breq	.+28     	; 0x162a <TIM_GetStatus+0x12a>
            {
               *FlagStatus = TIMER_OVERFLOW_FLAG;
    160e:	8a 81       	ldd	r24, Y+2	; 0x02
    1610:	9b 81       	ldd	r25, Y+3	; 0x03
    1612:	fc 01       	movw	r30, r24
    1614:	10 82       	st	Z, r1
               TIFR |= TIMER_1_OVERFLOW_FLAG;
    1616:	88 e5       	ldi	r24, 0x58	; 88
    1618:	90 e0       	ldi	r25, 0x00	; 0
    161a:	28 e5       	ldi	r18, 0x58	; 88
    161c:	30 e0       	ldi	r19, 0x00	; 0
    161e:	f9 01       	movw	r30, r18
    1620:	20 81       	ld	r18, Z
    1622:	24 60       	ori	r18, 0x04	; 4
    1624:	fc 01       	movw	r30, r24
    1626:	20 83       	st	Z, r18
            else
            {
               return TIMER_E_PENDING;
            }
         }
         break;
    1628:	96 c0       	rjmp	.+300    	; 0x1756 <TIM_GetStatus+0x256>
               *FlagStatus = TIMER_OVERFLOW_FLAG;
               TIFR |= TIMER_1_OVERFLOW_FLAG;
            }
            else
            {
               return TIMER_E_PENDING;
    162a:	8d ef       	ldi	r24, 0xFD	; 253
    162c:	98 c0       	rjmp	.+304    	; 0x175e <TIM_GetStatus+0x25e>
            }
         }
         else if(gastr_Timer_Config[TIM_channel].u8_mode == COMPARE_MATCH_MODE)
    162e:	89 81       	ldd	r24, Y+1	; 0x01
    1630:	28 2f       	mov	r18, r24
    1632:	30 e0       	ldi	r19, 0x00	; 0
    1634:	c9 01       	movw	r24, r18
    1636:	88 0f       	add	r24, r24
    1638:	99 1f       	adc	r25, r25
    163a:	82 0f       	add	r24, r18
    163c:	93 1f       	adc	r25, r19
    163e:	8c 52       	subi	r24, 0x2C	; 44
    1640:	9f 4f       	sbci	r25, 0xFF	; 255
    1642:	fc 01       	movw	r30, r24
    1644:	80 81       	ld	r24, Z
    1646:	88 30       	cpi	r24, 0x08	; 8
    1648:	09 f0       	breq	.+2      	; 0x164c <TIM_GetStatus+0x14c>
    164a:	85 c0       	rjmp	.+266    	; 0x1756 <TIM_GetStatus+0x256>
         {
            if(TIFR & TIMER_1A_COMPARE_FLAG)
    164c:	88 e5       	ldi	r24, 0x58	; 88
    164e:	90 e0       	ldi	r25, 0x00	; 0
    1650:	fc 01       	movw	r30, r24
    1652:	80 81       	ld	r24, Z
    1654:	88 2f       	mov	r24, r24
    1656:	90 e0       	ldi	r25, 0x00	; 0
    1658:	80 71       	andi	r24, 0x10	; 16
    165a:	99 27       	eor	r25, r25
    165c:	89 2b       	or	r24, r25
    165e:	79 f0       	breq	.+30     	; 0x167e <TIM_GetStatus+0x17e>
            {
               *FlagStatus = TIMER_COMPARE_FLAG;
    1660:	8a 81       	ldd	r24, Y+2	; 0x02
    1662:	9b 81       	ldd	r25, Y+3	; 0x03
    1664:	21 e0       	ldi	r18, 0x01	; 1
    1666:	fc 01       	movw	r30, r24
    1668:	20 83       	st	Z, r18
               TIFR |= TIMER_1A_COMPARE_FLAG;
    166a:	88 e5       	ldi	r24, 0x58	; 88
    166c:	90 e0       	ldi	r25, 0x00	; 0
    166e:	28 e5       	ldi	r18, 0x58	; 88
    1670:	30 e0       	ldi	r19, 0x00	; 0
    1672:	f9 01       	movw	r30, r18
    1674:	20 81       	ld	r18, Z
    1676:	20 61       	ori	r18, 0x10	; 16
    1678:	fc 01       	movw	r30, r24
    167a:	20 83       	st	Z, r18
            else
            {
               return TIMER_E_PENDING;
            }
         }
         break;
    167c:	6c c0       	rjmp	.+216    	; 0x1756 <TIM_GetStatus+0x256>
            if(TIFR & TIMER_1A_COMPARE_FLAG)
            {
               *FlagStatus = TIMER_COMPARE_FLAG;
               TIFR |= TIMER_1A_COMPARE_FLAG;
            }
            else if(TIFR & TIMER_1B_COMPARE_FLAG)
    167e:	88 e5       	ldi	r24, 0x58	; 88
    1680:	90 e0       	ldi	r25, 0x00	; 0
    1682:	fc 01       	movw	r30, r24
    1684:	80 81       	ld	r24, Z
    1686:	88 2f       	mov	r24, r24
    1688:	90 e0       	ldi	r25, 0x00	; 0
    168a:	88 70       	andi	r24, 0x08	; 8
    168c:	99 27       	eor	r25, r25
    168e:	89 2b       	or	r24, r25
    1690:	79 f0       	breq	.+30     	; 0x16b0 <TIM_GetStatus+0x1b0>
            {
               *FlagStatus = TIMER_COMPARE_FLAG;
    1692:	8a 81       	ldd	r24, Y+2	; 0x02
    1694:	9b 81       	ldd	r25, Y+3	; 0x03
    1696:	21 e0       	ldi	r18, 0x01	; 1
    1698:	fc 01       	movw	r30, r24
    169a:	20 83       	st	Z, r18
               TIFR |= TIMER_1B_COMPARE_FLAG;
    169c:	88 e5       	ldi	r24, 0x58	; 88
    169e:	90 e0       	ldi	r25, 0x00	; 0
    16a0:	28 e5       	ldi	r18, 0x58	; 88
    16a2:	30 e0       	ldi	r19, 0x00	; 0
    16a4:	f9 01       	movw	r30, r18
    16a6:	20 81       	ld	r18, Z
    16a8:	28 60       	ori	r18, 0x08	; 8
    16aa:	fc 01       	movw	r30, r24
    16ac:	20 83       	st	Z, r18
            else
            {
               return TIMER_E_PENDING;
            }
         }
         break;
    16ae:	53 c0       	rjmp	.+166    	; 0x1756 <TIM_GetStatus+0x256>
               *FlagStatus = TIMER_COMPARE_FLAG;
               TIFR |= TIMER_1B_COMPARE_FLAG;
            }
            else
            {
               return TIMER_E_PENDING;
    16b0:	8d ef       	ldi	r24, 0xFD	; 253
    16b2:	55 c0       	rjmp	.+170    	; 0x175e <TIM_GetStatus+0x25e>
            }
         }
         break;
      case TIMER_2:
         if(gastr_Timer_Config[TIM_channel].u8_mode == NORMAL_MODE)
    16b4:	89 81       	ldd	r24, Y+1	; 0x01
    16b6:	28 2f       	mov	r18, r24
    16b8:	30 e0       	ldi	r19, 0x00	; 0
    16ba:	c9 01       	movw	r24, r18
    16bc:	88 0f       	add	r24, r24
    16be:	99 1f       	adc	r25, r25
    16c0:	82 0f       	add	r24, r18
    16c2:	93 1f       	adc	r25, r19
    16c4:	8c 52       	subi	r24, 0x2C	; 44
    16c6:	9f 4f       	sbci	r25, 0xFF	; 255
    16c8:	fc 01       	movw	r30, r24
    16ca:	80 81       	ld	r24, Z
    16cc:	88 23       	and	r24, r24
    16ce:	d1 f4       	brne	.+52     	; 0x1704 <TIM_GetStatus+0x204>
         {
            if( TIFR & TIMER_2_OVERFLOW_FLAG )
    16d0:	88 e5       	ldi	r24, 0x58	; 88
    16d2:	90 e0       	ldi	r25, 0x00	; 0
    16d4:	fc 01       	movw	r30, r24
    16d6:	80 81       	ld	r24, Z
    16d8:	88 2f       	mov	r24, r24
    16da:	90 e0       	ldi	r25, 0x00	; 0
    16dc:	80 74       	andi	r24, 0x40	; 64
    16de:	99 27       	eor	r25, r25
    16e0:	89 2b       	or	r24, r25
    16e2:	71 f0       	breq	.+28     	; 0x1700 <TIM_GetStatus+0x200>
            {
               *FlagStatus = TIMER_OVERFLOW_FLAG;
    16e4:	8a 81       	ldd	r24, Y+2	; 0x02
    16e6:	9b 81       	ldd	r25, Y+3	; 0x03
    16e8:	fc 01       	movw	r30, r24
    16ea:	10 82       	st	Z, r1
               TIFR |= TIMER_2_OVERFLOW_FLAG;
    16ec:	88 e5       	ldi	r24, 0x58	; 88
    16ee:	90 e0       	ldi	r25, 0x00	; 0
    16f0:	28 e5       	ldi	r18, 0x58	; 88
    16f2:	30 e0       	ldi	r19, 0x00	; 0
    16f4:	f9 01       	movw	r30, r18
    16f6:	20 81       	ld	r18, Z
    16f8:	20 64       	ori	r18, 0x40	; 64
    16fa:	fc 01       	movw	r30, r24
    16fc:	20 83       	st	Z, r18
            {
               return TIMER_E_PENDING;
            }
         }
         
         break;
    16fe:	2d c0       	rjmp	.+90     	; 0x175a <TIM_GetStatus+0x25a>
               *FlagStatus = TIMER_OVERFLOW_FLAG;
               TIFR |= TIMER_2_OVERFLOW_FLAG;
            }
            else
            {
               return TIMER_E_PENDING;
    1700:	8d ef       	ldi	r24, 0xFD	; 253
    1702:	2d c0       	rjmp	.+90     	; 0x175e <TIM_GetStatus+0x25e>
            }
         }
         else if(gastr_Timer_Config[TIM_channel].u8_mode == COMPARE_MATCH_MODE)
    1704:	89 81       	ldd	r24, Y+1	; 0x01
    1706:	28 2f       	mov	r18, r24
    1708:	30 e0       	ldi	r19, 0x00	; 0
    170a:	c9 01       	movw	r24, r18
    170c:	88 0f       	add	r24, r24
    170e:	99 1f       	adc	r25, r25
    1710:	82 0f       	add	r24, r18
    1712:	93 1f       	adc	r25, r19
    1714:	8c 52       	subi	r24, 0x2C	; 44
    1716:	9f 4f       	sbci	r25, 0xFF	; 255
    1718:	fc 01       	movw	r30, r24
    171a:	80 81       	ld	r24, Z
    171c:	88 30       	cpi	r24, 0x08	; 8
    171e:	e9 f4       	brne	.+58     	; 0x175a <TIM_GetStatus+0x25a>
         {
            if(TIFR & TIMER_2_COMPARE_FLAG)
    1720:	88 e5       	ldi	r24, 0x58	; 88
    1722:	90 e0       	ldi	r25, 0x00	; 0
    1724:	fc 01       	movw	r30, r24
    1726:	80 81       	ld	r24, Z
    1728:	88 23       	and	r24, r24
    172a:	7c f4       	brge	.+30     	; 0x174a <TIM_GetStatus+0x24a>
            {
               *FlagStatus = TIMER_COMPARE_FLAG;
    172c:	8a 81       	ldd	r24, Y+2	; 0x02
    172e:	9b 81       	ldd	r25, Y+3	; 0x03
    1730:	21 e0       	ldi	r18, 0x01	; 1
    1732:	fc 01       	movw	r30, r24
    1734:	20 83       	st	Z, r18
               TIFR |= TIMER_2_COMPARE_FLAG;
    1736:	88 e5       	ldi	r24, 0x58	; 88
    1738:	90 e0       	ldi	r25, 0x00	; 0
    173a:	28 e5       	ldi	r18, 0x58	; 88
    173c:	30 e0       	ldi	r19, 0x00	; 0
    173e:	f9 01       	movw	r30, r18
    1740:	20 81       	ld	r18, Z
    1742:	20 68       	ori	r18, 0x80	; 128
    1744:	fc 01       	movw	r30, r24
    1746:	20 83       	st	Z, r18
            {
               return TIMER_E_PENDING;
            }
         }
         
         break;
    1748:	08 c0       	rjmp	.+16     	; 0x175a <TIM_GetStatus+0x25a>
               *FlagStatus = TIMER_COMPARE_FLAG;
               TIFR |= TIMER_2_COMPARE_FLAG;
            }
            else
            {
               return TIMER_E_PENDING;
    174a:	8d ef       	ldi	r24, 0xFD	; 253
    174c:	08 c0       	rjmp	.+16     	; 0x175e <TIM_GetStatus+0x25e>
            }
         }
         
         break;
      default:
         return TIMER_E_INVALID_CH_NUM;
    174e:	8e ef       	ldi	r24, 0xFE	; 254
    1750:	06 c0       	rjmp	.+12     	; 0x175e <TIM_GetStatus+0x25e>
            else
            {
               return TIMER_E_PENDING;
            }
         }
         break;
    1752:	00 00       	nop
    1754:	03 c0       	rjmp	.+6      	; 0x175c <TIM_GetStatus+0x25c>
            else
            {
               return TIMER_E_PENDING;
            }
         }
         break;
    1756:	00 00       	nop
    1758:	01 c0       	rjmp	.+2      	; 0x175c <TIM_GetStatus+0x25c>
            {
               return TIMER_E_PENDING;
            }
         }
         
         break;
    175a:	00 00       	nop
      default:
         return TIMER_E_INVALID_CH_NUM;
   }
   
   /* return success message. */
   return ERROR_OK;
    175c:	80 e0       	ldi	r24, 0x00	; 0
}
    175e:	0f 90       	pop	r0
    1760:	0f 90       	pop	r0
    1762:	0f 90       	pop	r0
    1764:	df 91       	pop	r29
    1766:	cf 91       	pop	r28
    1768:	08 95       	ret

0000176a <TIM_DelayUs>:
* @param [out] TIM_Delay   -  Time to delay in microseconds.
*
* @return function error state.
*/
ERROR_STATE_t TIM_DelayUs(TIM_CH_t TIM_channel, TIM_Delay_t TIM_Delay, Ptr_VoidFuncVoid_t DelayRequester)
{
    176a:	ef 92       	push	r14
    176c:	ff 92       	push	r15
    176e:	0f 93       	push	r16
    1770:	1f 93       	push	r17
    1772:	cf 93       	push	r28
    1774:	df 93       	push	r29
    1776:	cd b7       	in	r28, 0x3d	; 61
    1778:	de b7       	in	r29, 0x3e	; 62
    177a:	2c 97       	sbiw	r28, 0x0c	; 12
    177c:	0f b6       	in	r0, 0x3f	; 63
    177e:	f8 94       	cli
    1780:	de bf       	out	0x3e, r29	; 62
    1782:	0f be       	out	0x3f, r0	; 63
    1784:	cd bf       	out	0x3d, r28	; 61
    1786:	8e 83       	std	Y+6, r24	; 0x06
    1788:	4f 83       	std	Y+7, r20	; 0x07
    178a:	58 87       	std	Y+8, r21	; 0x08
    178c:	69 87       	std	Y+9, r22	; 0x09
    178e:	7a 87       	std	Y+10, r23	; 0x0a
    1790:	3c 87       	std	Y+12, r19	; 0x0c
    1792:	2b 87       	std	Y+11, r18	; 0x0b
   /* Make sure not invalid timer channel */
   if(TIM_channel >= INVALID_TIMER_CH)
    1794:	8e 81       	ldd	r24, Y+6	; 0x06
    1796:	83 30       	cpi	r24, 0x03	; 3
    1798:	10 f0       	brcs	.+4      	; 0x179e <TIM_DelayUs+0x34>
   {
      return TIMER_E_INVALID_CH_NUM;
    179a:	8e ef       	ldi	r24, 0xFE	; 254
    179c:	7e c0       	rjmp	.+252    	; 0x189a <TIM_DelayUs+0x130>
   }
   
   if(NULL_PTR == DelayRequester)
    179e:	8b 85       	ldd	r24, Y+11	; 0x0b
    17a0:	9c 85       	ldd	r25, Y+12	; 0x0c
    17a2:	89 2b       	or	r24, r25
    17a4:	11 f4       	brne	.+4      	; 0x17aa <TIM_DelayUs+0x40>
   {
      return ERROR_NOK;
    17a6:	81 e0       	ldi	r24, 0x01	; 1
    17a8:	78 c0       	rjmp	.+240    	; 0x189a <TIM_DelayUs+0x130>
   }
   else
   {
      gptr_CallerFunc = DelayRequester;
    17aa:	8b 85       	ldd	r24, Y+11	; 0x0b
    17ac:	9c 85       	ldd	r25, Y+12	; 0x0c
    17ae:	90 93 1b 01 	sts	0x011B, r25	; 0x80011b <gptr_CallerFunc+0x1>
    17b2:	80 93 1a 01 	sts	0x011A, r24	; 0x80011a <gptr_CallerFunc>
   
   /* Static variables used */
   ERROR_STATE_t Timer_state;
   
   /* Ready state */
   if(DelayReady == gEnu_State)
    17b6:	80 91 19 01 	lds	r24, 0x0119	; 0x800119 <gEnu_State>
    17ba:	88 23       	and	r24, r24
    17bc:	09 f0       	breq	.+2      	; 0x17c0 <TIM_DelayUs+0x56>
    17be:	6c c0       	rjmp	.+216    	; 0x1898 <TIM_DelayUs+0x12e>
   {
      /* Calculate needed frequency Ratio */
      float32_t f32_FreqRatio;
      Timer_state = GetFreqPrescaleRatio(TIM_channel, &f32_FreqRatio);
    17c0:	ce 01       	movw	r24, r28
    17c2:	02 96       	adiw	r24, 0x02	; 2
    17c4:	bc 01       	movw	r22, r24
    17c6:	8e 81       	ldd	r24, Y+6	; 0x06
    17c8:	0e 94 73 08 	call	0x10e6	; 0x10e6 <GetFreqPrescaleRatio>
    17cc:	89 83       	std	Y+1, r24	; 0x01
      if(TIMER_E_UNSUPPORTED_PRESCALE == Timer_state)
    17ce:	89 81       	ldd	r24, Y+1	; 0x01
    17d0:	8c 3f       	cpi	r24, 0xFC	; 252
    17d2:	11 f4       	brne	.+4      	; 0x17d8 <TIM_DelayUs+0x6e>
      {
         return TIMER_E_UNSUPPORTED_PRESCALE;
    17d4:	8c ef       	ldi	r24, 0xFC	; 252
    17d6:	61 c0       	rjmp	.+194    	; 0x189a <TIM_DelayUs+0x130>
      }
      
      if(f32_FreqRatio != 0)
    17d8:	8a 81       	ldd	r24, Y+2	; 0x02
    17da:	9b 81       	ldd	r25, Y+3	; 0x03
    17dc:	ac 81       	ldd	r26, Y+4	; 0x04
    17de:	bd 81       	ldd	r27, Y+5	; 0x05
    17e0:	20 e0       	ldi	r18, 0x00	; 0
    17e2:	30 e0       	ldi	r19, 0x00	; 0
    17e4:	a9 01       	movw	r20, r18
    17e6:	bc 01       	movw	r22, r24
    17e8:	cd 01       	movw	r24, r26
    17ea:	0e 94 8c 0f 	call	0x1f18	; 0x1f18 <__cmpsf2>
    17ee:	88 23       	and	r24, r24
    17f0:	f1 f0       	breq	.+60     	; 0x182e <TIM_DelayUs+0xc4>
      {
         TIM_Delay /= f32_FreqRatio;
    17f2:	6f 81       	ldd	r22, Y+7	; 0x07
    17f4:	78 85       	ldd	r23, Y+8	; 0x08
    17f6:	89 85       	ldd	r24, Y+9	; 0x09
    17f8:	9a 85       	ldd	r25, Y+10	; 0x0a
    17fa:	0e 94 32 10 	call	0x2064	; 0x2064 <__floatunsisf>
    17fe:	7b 01       	movw	r14, r22
    1800:	8c 01       	movw	r16, r24
    1802:	8a 81       	ldd	r24, Y+2	; 0x02
    1804:	9b 81       	ldd	r25, Y+3	; 0x03
    1806:	ac 81       	ldd	r26, Y+4	; 0x04
    1808:	bd 81       	ldd	r27, Y+5	; 0x05
    180a:	9c 01       	movw	r18, r24
    180c:	ad 01       	movw	r20, r26
    180e:	c8 01       	movw	r24, r16
    1810:	b7 01       	movw	r22, r14
    1812:	0e 94 91 0f 	call	0x1f22	; 0x1f22 <__divsf3>
    1816:	dc 01       	movw	r26, r24
    1818:	cb 01       	movw	r24, r22
    181a:	bc 01       	movw	r22, r24
    181c:	cd 01       	movw	r24, r26
    181e:	0e 94 03 10 	call	0x2006	; 0x2006 <__fixunssfsi>
    1822:	dc 01       	movw	r26, r24
    1824:	cb 01       	movw	r24, r22
    1826:	8f 83       	std	Y+7, r24	; 0x07
    1828:	98 87       	std	Y+8, r25	; 0x08
    182a:	a9 87       	std	Y+9, r26	; 0x09
    182c:	ba 87       	std	Y+10, r27	; 0x0a
      }
      
      /* Calculate how many overflows needed */
      gu32_Overflows = TIM_Delay / TIMER_OVERFLOW_FACTOR;
    182e:	8f 81       	ldd	r24, Y+7	; 0x07
    1830:	98 85       	ldd	r25, Y+8	; 0x08
    1832:	a9 85       	ldd	r26, Y+9	; 0x09
    1834:	ba 85       	ldd	r27, Y+10	; 0x0a
    1836:	89 2f       	mov	r24, r25
    1838:	9a 2f       	mov	r25, r26
    183a:	ab 2f       	mov	r26, r27
    183c:	bb 27       	eor	r27, r27
    183e:	80 93 13 01 	sts	0x0113, r24	; 0x800113 <gu32_Overflows>
    1842:	90 93 14 01 	sts	0x0114, r25	; 0x800114 <gu32_Overflows+0x1>
    1846:	a0 93 15 01 	sts	0x0115, r26	; 0x800115 <gu32_Overflows+0x2>
    184a:	b0 93 16 01 	sts	0x0116, r27	; 0x800116 <gu32_Overflows+0x3>
      gu8_Remindar = TIM_Delay % TIMER_OVERFLOW_FACTOR;
    184e:	8f 81       	ldd	r24, Y+7	; 0x07
    1850:	80 93 18 01 	sts	0x0118, r24	; 0x800118 <gu8_Remindar>
      
      if(gu32_Overflows == 0)
    1854:	80 91 13 01 	lds	r24, 0x0113	; 0x800113 <gu32_Overflows>
    1858:	90 91 14 01 	lds	r25, 0x0114	; 0x800114 <gu32_Overflows+0x1>
    185c:	a0 91 15 01 	lds	r26, 0x0115	; 0x800115 <gu32_Overflows+0x2>
    1860:	b0 91 16 01 	lds	r27, 0x0116	; 0x800116 <gu32_Overflows+0x3>
    1864:	89 2b       	or	r24, r25
    1866:	8a 2b       	or	r24, r26
    1868:	8b 2b       	or	r24, r27
    186a:	61 f4       	brne	.+24     	; 0x1884 <TIM_DelayUs+0x11a>
      {
         gu8_OverflowsComplete = HIGH;
    186c:	81 e0       	ldi	r24, 0x01	; 1
    186e:	80 93 17 01 	sts	0x0117, r24	; 0x800117 <gu8_OverflowsComplete>
         TIM_Start(TIM_channel, gu8_Remindar);
    1872:	80 91 18 01 	lds	r24, 0x0118	; 0x800118 <gu8_Remindar>
    1876:	88 2f       	mov	r24, r24
    1878:	90 e0       	ldi	r25, 0x00	; 0
    187a:	bc 01       	movw	r22, r24
    187c:	8e 81       	ldd	r24, Y+6	; 0x06
    187e:	0e 94 20 0a 	call	0x1440	; 0x1440 <TIM_Start>
    1882:	05 c0       	rjmp	.+10     	; 0x188e <TIM_DelayUs+0x124>
      }
      else
      {
         /* Start timer with full register */
         TIM_Start(TIM_channel, FULL_8_BITS);
    1884:	6f ef       	ldi	r22, 0xFF	; 255
    1886:	70 e0       	ldi	r23, 0x00	; 0
    1888:	8e 81       	ldd	r24, Y+6	; 0x06
    188a:	0e 94 20 0a 	call	0x1440	; 0x1440 <TIM_Start>
      }     
      /* Change to timer pending state */ 
      gEnu_State = DelayPending;
    188e:	81 e0       	ldi	r24, 0x01	; 1
    1890:	80 93 19 01 	sts	0x0119, r24	; 0x800119 <gEnu_State>
      return TIMER_E_PENDING;
    1894:	8d ef       	ldi	r24, 0xFD	; 253
    1896:	01 c0       	rjmp	.+2      	; 0x189a <TIM_DelayUs+0x130>
   }
   
   return ERROR_NOK;            
    1898:	81 e0       	ldi	r24, 0x01	; 1
}
    189a:	2c 96       	adiw	r28, 0x0c	; 12
    189c:	0f b6       	in	r0, 0x3f	; 63
    189e:	f8 94       	cli
    18a0:	de bf       	out	0x3e, r29	; 62
    18a2:	0f be       	out	0x3f, r0	; 63
    18a4:	cd bf       	out	0x3d, r28	; 61
    18a6:	df 91       	pop	r29
    18a8:	cf 91       	pop	r28
    18aa:	1f 91       	pop	r17
    18ac:	0f 91       	pop	r16
    18ae:	ff 90       	pop	r15
    18b0:	ef 90       	pop	r14
    18b2:	08 95       	ret

000018b4 <TIM_DelayMs>:
* @param [out] TIM_Delay   -  Time to delay in milliseconds.
*
* @return function error state.
*/
ERROR_STATE_t TIM_DelayMs(TIM_CH_t TIM_channel, TIM_Delay_t TIM_Delay, Ptr_VoidFuncVoid_t DelayRequester)
{
    18b4:	ef 92       	push	r14
    18b6:	ff 92       	push	r15
    18b8:	0f 93       	push	r16
    18ba:	1f 93       	push	r17
    18bc:	cf 93       	push	r28
    18be:	df 93       	push	r29
    18c0:	cd b7       	in	r28, 0x3d	; 61
    18c2:	de b7       	in	r29, 0x3e	; 62
    18c4:	2c 97       	sbiw	r28, 0x0c	; 12
    18c6:	0f b6       	in	r0, 0x3f	; 63
    18c8:	f8 94       	cli
    18ca:	de bf       	out	0x3e, r29	; 62
    18cc:	0f be       	out	0x3f, r0	; 63
    18ce:	cd bf       	out	0x3d, r28	; 61
    18d0:	8e 83       	std	Y+6, r24	; 0x06
    18d2:	4f 83       	std	Y+7, r20	; 0x07
    18d4:	58 87       	std	Y+8, r21	; 0x08
    18d6:	69 87       	std	Y+9, r22	; 0x09
    18d8:	7a 87       	std	Y+10, r23	; 0x0a
    18da:	3c 87       	std	Y+12, r19	; 0x0c
    18dc:	2b 87       	std	Y+11, r18	; 0x0b
   /* Make sure not invalid timer channel */
   if(TIM_channel >= INVALID_TIMER_CH)
    18de:	8e 81       	ldd	r24, Y+6	; 0x06
    18e0:	83 30       	cpi	r24, 0x03	; 3
    18e2:	10 f0       	brcs	.+4      	; 0x18e8 <TIM_DelayMs+0x34>
   {
      return TIMER_E_INVALID_CH_NUM;
    18e4:	8e ef       	ldi	r24, 0xFE	; 254
    18e6:	89 c0       	rjmp	.+274    	; 0x19fa <TIM_DelayMs+0x146>
   }
   
   if(NULL_PTR == DelayRequester)
    18e8:	8b 85       	ldd	r24, Y+11	; 0x0b
    18ea:	9c 85       	ldd	r25, Y+12	; 0x0c
    18ec:	89 2b       	or	r24, r25
    18ee:	11 f4       	brne	.+4      	; 0x18f4 <TIM_DelayMs+0x40>
   {
      return ERROR_NOK;
    18f0:	81 e0       	ldi	r24, 0x01	; 1
    18f2:	83 c0       	rjmp	.+262    	; 0x19fa <TIM_DelayMs+0x146>
   }
   else
   {
      gptr_CallerFunc = DelayRequester;
    18f4:	8b 85       	ldd	r24, Y+11	; 0x0b
    18f6:	9c 85       	ldd	r25, Y+12	; 0x0c
    18f8:	90 93 1b 01 	sts	0x011B, r25	; 0x80011b <gptr_CallerFunc+0x1>
    18fc:	80 93 1a 01 	sts	0x011A, r24	; 0x80011a <gptr_CallerFunc>
   }
   
   ERROR_STATE_t Timer_state;
   
   /* Ready state */
   if(DelayReady == gEnu_State)
    1900:	80 91 19 01 	lds	r24, 0x0119	; 0x800119 <gEnu_State>
    1904:	88 23       	and	r24, r24
    1906:	09 f0       	breq	.+2      	; 0x190a <TIM_DelayMs+0x56>
    1908:	77 c0       	rjmp	.+238    	; 0x19f8 <TIM_DelayMs+0x144>
   {
      /* Calculate needer frequency Ratio */
      float32_t f32_FreqRatio;
      Timer_state = GetFreqPrescaleRatio(TIM_channel, &f32_FreqRatio);
    190a:	ce 01       	movw	r24, r28
    190c:	02 96       	adiw	r24, 0x02	; 2
    190e:	bc 01       	movw	r22, r24
    1910:	8e 81       	ldd	r24, Y+6	; 0x06
    1912:	0e 94 73 08 	call	0x10e6	; 0x10e6 <GetFreqPrescaleRatio>
    1916:	89 83       	std	Y+1, r24	; 0x01
      if(TIMER_E_UNSUPPORTED_PRESCALE == Timer_state)
    1918:	89 81       	ldd	r24, Y+1	; 0x01
    191a:	8c 3f       	cpi	r24, 0xFC	; 252
    191c:	11 f4       	brne	.+4      	; 0x1922 <TIM_DelayMs+0x6e>
      {
         return TIMER_E_UNSUPPORTED_PRESCALE;
    191e:	8c ef       	ldi	r24, 0xFC	; 252
    1920:	6c c0       	rjmp	.+216    	; 0x19fa <TIM_DelayMs+0x146>
      }
      
      if(f32_FreqRatio != 0)
    1922:	8a 81       	ldd	r24, Y+2	; 0x02
    1924:	9b 81       	ldd	r25, Y+3	; 0x03
    1926:	ac 81       	ldd	r26, Y+4	; 0x04
    1928:	bd 81       	ldd	r27, Y+5	; 0x05
    192a:	20 e0       	ldi	r18, 0x00	; 0
    192c:	30 e0       	ldi	r19, 0x00	; 0
    192e:	a9 01       	movw	r20, r18
    1930:	bc 01       	movw	r22, r24
    1932:	cd 01       	movw	r24, r26
    1934:	0e 94 8c 0f 	call	0x1f18	; 0x1f18 <__cmpsf2>
    1938:	88 23       	and	r24, r24
    193a:	f1 f0       	breq	.+60     	; 0x1978 <TIM_DelayMs+0xc4>
      {
         TIM_Delay /= f32_FreqRatio;
    193c:	6f 81       	ldd	r22, Y+7	; 0x07
    193e:	78 85       	ldd	r23, Y+8	; 0x08
    1940:	89 85       	ldd	r24, Y+9	; 0x09
    1942:	9a 85       	ldd	r25, Y+10	; 0x0a
    1944:	0e 94 32 10 	call	0x2064	; 0x2064 <__floatunsisf>
    1948:	7b 01       	movw	r14, r22
    194a:	8c 01       	movw	r16, r24
    194c:	8a 81       	ldd	r24, Y+2	; 0x02
    194e:	9b 81       	ldd	r25, Y+3	; 0x03
    1950:	ac 81       	ldd	r26, Y+4	; 0x04
    1952:	bd 81       	ldd	r27, Y+5	; 0x05
    1954:	9c 01       	movw	r18, r24
    1956:	ad 01       	movw	r20, r26
    1958:	c8 01       	movw	r24, r16
    195a:	b7 01       	movw	r22, r14
    195c:	0e 94 91 0f 	call	0x1f22	; 0x1f22 <__divsf3>
    1960:	dc 01       	movw	r26, r24
    1962:	cb 01       	movw	r24, r22
    1964:	bc 01       	movw	r22, r24
    1966:	cd 01       	movw	r24, r26
    1968:	0e 94 03 10 	call	0x2006	; 0x2006 <__fixunssfsi>
    196c:	dc 01       	movw	r26, r24
    196e:	cb 01       	movw	r24, r22
    1970:	8f 83       	std	Y+7, r24	; 0x07
    1972:	98 87       	std	Y+8, r25	; 0x08
    1974:	a9 87       	std	Y+9, r26	; 0x09
    1976:	ba 87       	std	Y+10, r27	; 0x0a
      }
      
      /* Calculate how many overflows needed */
      gu32_Overflows = TIM_Delay*MILLISECOND_TO_MICROSECOND / TIMER_OVERFLOW_FACTOR;
    1978:	2f 81       	ldd	r18, Y+7	; 0x07
    197a:	38 85       	ldd	r19, Y+8	; 0x08
    197c:	49 85       	ldd	r20, Y+9	; 0x09
    197e:	5a 85       	ldd	r21, Y+10	; 0x0a
    1980:	88 ee       	ldi	r24, 0xE8	; 232
    1982:	93 e0       	ldi	r25, 0x03	; 3
    1984:	dc 01       	movw	r26, r24
    1986:	0e 94 ea 10 	call	0x21d4	; 0x21d4 <__muluhisi3>
    198a:	dc 01       	movw	r26, r24
    198c:	cb 01       	movw	r24, r22
    198e:	89 2f       	mov	r24, r25
    1990:	9a 2f       	mov	r25, r26
    1992:	ab 2f       	mov	r26, r27
    1994:	bb 27       	eor	r27, r27
    1996:	80 93 13 01 	sts	0x0113, r24	; 0x800113 <gu32_Overflows>
    199a:	90 93 14 01 	sts	0x0114, r25	; 0x800114 <gu32_Overflows+0x1>
    199e:	a0 93 15 01 	sts	0x0115, r26	; 0x800115 <gu32_Overflows+0x2>
    19a2:	b0 93 16 01 	sts	0x0116, r27	; 0x800116 <gu32_Overflows+0x3>
      gu8_Remindar = TIM_Delay*MILLISECOND_TO_MICROSECOND % TIMER_OVERFLOW_FACTOR;
    19a6:	9f 81       	ldd	r25, Y+7	; 0x07
    19a8:	88 ee       	ldi	r24, 0xE8	; 232
    19aa:	98 9f       	mul	r25, r24
    19ac:	80 2d       	mov	r24, r0
    19ae:	11 24       	eor	r1, r1
    19b0:	80 93 18 01 	sts	0x0118, r24	; 0x800118 <gu8_Remindar>
      
      if(gu32_Overflows == 0)
    19b4:	80 91 13 01 	lds	r24, 0x0113	; 0x800113 <gu32_Overflows>
    19b8:	90 91 14 01 	lds	r25, 0x0114	; 0x800114 <gu32_Overflows+0x1>
    19bc:	a0 91 15 01 	lds	r26, 0x0115	; 0x800115 <gu32_Overflows+0x2>
    19c0:	b0 91 16 01 	lds	r27, 0x0116	; 0x800116 <gu32_Overflows+0x3>
    19c4:	89 2b       	or	r24, r25
    19c6:	8a 2b       	or	r24, r26
    19c8:	8b 2b       	or	r24, r27
    19ca:	61 f4       	brne	.+24     	; 0x19e4 <TIM_DelayMs+0x130>
      {
         gu8_OverflowsComplete = HIGH;
    19cc:	81 e0       	ldi	r24, 0x01	; 1
    19ce:	80 93 17 01 	sts	0x0117, r24	; 0x800117 <gu8_OverflowsComplete>
         TIM_Start(TIM_channel, gu8_Remindar);
    19d2:	80 91 18 01 	lds	r24, 0x0118	; 0x800118 <gu8_Remindar>
    19d6:	88 2f       	mov	r24, r24
    19d8:	90 e0       	ldi	r25, 0x00	; 0
    19da:	bc 01       	movw	r22, r24
    19dc:	8e 81       	ldd	r24, Y+6	; 0x06
    19de:	0e 94 20 0a 	call	0x1440	; 0x1440 <TIM_Start>
    19e2:	05 c0       	rjmp	.+10     	; 0x19ee <TIM_DelayMs+0x13a>
      }
      else
      {
         /* Start timer with full register */
         TIM_Start(TIM_channel, FULL_8_BITS);
    19e4:	6f ef       	ldi	r22, 0xFF	; 255
    19e6:	70 e0       	ldi	r23, 0x00	; 0
    19e8:	8e 81       	ldd	r24, Y+6	; 0x06
    19ea:	0e 94 20 0a 	call	0x1440	; 0x1440 <TIM_Start>
      }
      /* Change to timer pending state */
      gEnu_State= DelayPending;
    19ee:	81 e0       	ldi	r24, 0x01	; 1
    19f0:	80 93 19 01 	sts	0x0119, r24	; 0x800119 <gEnu_State>
      return TIMER_E_PENDING;
    19f4:	8d ef       	ldi	r24, 0xFD	; 253
    19f6:	01 c0       	rjmp	.+2      	; 0x19fa <TIM_DelayMs+0x146>
   }
   
   return ERROR_NOK;
    19f8:	81 e0       	ldi	r24, 0x01	; 1
}
    19fa:	2c 96       	adiw	r28, 0x0c	; 12
    19fc:	0f b6       	in	r0, 0x3f	; 63
    19fe:	f8 94       	cli
    1a00:	de bf       	out	0x3e, r29	; 62
    1a02:	0f be       	out	0x3f, r0	; 63
    1a04:	cd bf       	out	0x3d, r28	; 61
    1a06:	df 91       	pop	r29
    1a08:	cf 91       	pop	r28
    1a0a:	1f 91       	pop	r17
    1a0c:	0f 91       	pop	r16
    1a0e:	ff 90       	pop	r15
    1a10:	ef 90       	pop	r14
    1a12:	08 95       	ret

00001a14 <TIM_DelayStatus>:
* @param [out] DelayRequester    -  Function that requested the delay.
*
* @return function error state.
*/
ERROR_STATE_t TIM_DelayStatus(TIM_CH_t TIM_channel, Ptr_VoidFuncVoid_t DelayRequester)
{
    1a14:	cf 93       	push	r28
    1a16:	df 93       	push	r29
    1a18:	00 d0       	rcall	.+0      	; 0x1a1a <TIM_DelayStatus+0x6>
    1a1a:	00 d0       	rcall	.+0      	; 0x1a1c <TIM_DelayStatus+0x8>
    1a1c:	1f 92       	push	r1
    1a1e:	cd b7       	in	r28, 0x3d	; 61
    1a20:	de b7       	in	r29, 0x3e	; 62
    1a22:	8b 83       	std	Y+3, r24	; 0x03
    1a24:	7d 83       	std	Y+5, r23	; 0x05
    1a26:	6c 83       	std	Y+4, r22	; 0x04
   if(DelayReady == gEnu_State)
    1a28:	80 91 19 01 	lds	r24, 0x0119	; 0x800119 <gEnu_State>
    1a2c:	88 23       	and	r24, r24
    1a2e:	11 f4       	brne	.+4      	; 0x1a34 <TIM_DelayStatus+0x20>
   {
      return TIMER_E_DELAY_EMPTY;
    1a30:	8b ef       	ldi	r24, 0xFB	; 251
    1a32:	5c c0       	rjmp	.+184    	; 0x1aec <TIM_DelayStatus+0xd8>
   }
   
   if(DelayRequester != gptr_CallerFunc)
    1a34:	80 91 1a 01 	lds	r24, 0x011A	; 0x80011a <gptr_CallerFunc>
    1a38:	90 91 1b 01 	lds	r25, 0x011B	; 0x80011b <gptr_CallerFunc+0x1>
    1a3c:	2c 81       	ldd	r18, Y+4	; 0x04
    1a3e:	3d 81       	ldd	r19, Y+5	; 0x05
    1a40:	28 17       	cp	r18, r24
    1a42:	39 07       	cpc	r19, r25
    1a44:	11 f0       	breq	.+4      	; 0x1a4a <TIM_DelayStatus+0x36>
   {
      return ERROR_NOK;
    1a46:	81 e0       	ldi	r24, 0x01	; 1
    1a48:	51 c0       	rjmp	.+162    	; 0x1aec <TIM_DelayStatus+0xd8>
   }
   
   ERROR_STATE_t Timer_state;
   
   if(DelayPending == gEnu_State)
    1a4a:	80 91 19 01 	lds	r24, 0x0119	; 0x800119 <gEnu_State>
    1a4e:	81 30       	cpi	r24, 0x01	; 1
    1a50:	09 f0       	breq	.+2      	; 0x1a54 <TIM_DelayStatus+0x40>
    1a52:	49 c0       	rjmp	.+146    	; 0x1ae6 <TIM_DelayStatus+0xd2>
   {
      uint8_t u8_FlagState;
      /* Check timer state */
      Timer_state= TIM_GetStatus(TIM_channel, &u8_FlagState);
    1a54:	ce 01       	movw	r24, r28
    1a56:	02 96       	adiw	r24, 0x02	; 2
    1a58:	bc 01       	movw	r22, r24
    1a5a:	8b 81       	ldd	r24, Y+3	; 0x03
    1a5c:	0e 94 80 0a 	call	0x1500	; 0x1500 <TIM_GetStatus>
    1a60:	89 83       	std	Y+1, r24	; 0x01
      if(Timer_state == TIMER_OVERFLOW_FLAG)
    1a62:	89 81       	ldd	r24, Y+1	; 0x01
    1a64:	88 23       	and	r24, r24
    1a66:	09 f0       	breq	.+2      	; 0x1a6a <TIM_DelayStatus+0x56>
    1a68:	40 c0       	rjmp	.+128    	; 0x1aea <TIM_DelayStatus+0xd6>
      {
         /* If all overflows are finished and reminder. */
         if(gu8_OverflowsComplete == HIGH)
    1a6a:	80 91 17 01 	lds	r24, 0x0117	; 0x800117 <gu8_OverflowsComplete>
    1a6e:	81 30       	cpi	r24, 0x01	; 1
    1a70:	41 f4       	brne	.+16     	; 0x1a82 <TIM_DelayStatus+0x6e>
         {
            /* Return to ready state */
            gEnu_State = DelayReady;
    1a72:	10 92 19 01 	sts	0x0119, r1	; 0x800119 <gEnu_State>
            gu8_OverflowsComplete = LOW;
    1a76:	10 92 17 01 	sts	0x0117, r1	; 0x800117 <gu8_OverflowsComplete>
            gu8_Remindar = 0;
    1a7a:	10 92 18 01 	sts	0x0118, r1	; 0x800118 <gu8_Remindar>
            /* return success message. */
            return ERROR_OK;
    1a7e:	80 e0       	ldi	r24, 0x00	; 0
    1a80:	35 c0       	rjmp	.+106    	; 0x1aec <TIM_DelayStatus+0xd8>
         }
         
         /* Decrement overflows number */
         gu32_Overflows--;
    1a82:	80 91 13 01 	lds	r24, 0x0113	; 0x800113 <gu32_Overflows>
    1a86:	90 91 14 01 	lds	r25, 0x0114	; 0x800114 <gu32_Overflows+0x1>
    1a8a:	a0 91 15 01 	lds	r26, 0x0115	; 0x800115 <gu32_Overflows+0x2>
    1a8e:	b0 91 16 01 	lds	r27, 0x0116	; 0x800116 <gu32_Overflows+0x3>
    1a92:	01 97       	sbiw	r24, 0x01	; 1
    1a94:	a1 09       	sbc	r26, r1
    1a96:	b1 09       	sbc	r27, r1
    1a98:	80 93 13 01 	sts	0x0113, r24	; 0x800113 <gu32_Overflows>
    1a9c:	90 93 14 01 	sts	0x0114, r25	; 0x800114 <gu32_Overflows+0x1>
    1aa0:	a0 93 15 01 	sts	0x0115, r26	; 0x800115 <gu32_Overflows+0x2>
    1aa4:	b0 93 16 01 	sts	0x0116, r27	; 0x800116 <gu32_Overflows+0x3>
         /* If all overflows finished raise a flag so the next overflow will be the remainder's overflow */
         if(gu32_Overflows == 0)
    1aa8:	80 91 13 01 	lds	r24, 0x0113	; 0x800113 <gu32_Overflows>
    1aac:	90 91 14 01 	lds	r25, 0x0114	; 0x800114 <gu32_Overflows+0x1>
    1ab0:	a0 91 15 01 	lds	r26, 0x0115	; 0x800115 <gu32_Overflows+0x2>
    1ab4:	b0 91 16 01 	lds	r27, 0x0116	; 0x800116 <gu32_Overflows+0x3>
    1ab8:	89 2b       	or	r24, r25
    1aba:	8a 2b       	or	r24, r26
    1abc:	8b 2b       	or	r24, r27
    1abe:	61 f4       	brne	.+24     	; 0x1ad8 <TIM_DelayStatus+0xc4>
         {
            gu8_OverflowsComplete = HIGH;
    1ac0:	81 e0       	ldi	r24, 0x01	; 1
    1ac2:	80 93 17 01 	sts	0x0117, r24	; 0x800117 <gu8_OverflowsComplete>
            TIM_Start(TIM_channel, gu8_Remindar);
    1ac6:	80 91 18 01 	lds	r24, 0x0118	; 0x800118 <gu8_Remindar>
    1aca:	88 2f       	mov	r24, r24
    1acc:	90 e0       	ldi	r25, 0x00	; 0
    1ace:	bc 01       	movw	r22, r24
    1ad0:	8b 81       	ldd	r24, Y+3	; 0x03
    1ad2:	0e 94 20 0a 	call	0x1440	; 0x1440 <TIM_Start>
    1ad6:	05 c0       	rjmp	.+10     	; 0x1ae2 <TIM_DelayStatus+0xce>
         }
         else
         {
            /* Start timer with full register */
            TIM_Start(TIM_channel, FULL_8_BITS);
    1ad8:	6f ef       	ldi	r22, 0xFF	; 255
    1ada:	70 e0       	ldi	r23, 0x00	; 0
    1adc:	8b 81       	ldd	r24, Y+3	; 0x03
    1ade:	0e 94 20 0a 	call	0x1440	; 0x1440 <TIM_Start>
         }
         
         return TIMER_E_PENDING;
    1ae2:	8d ef       	ldi	r24, 0xFD	; 253
    1ae4:	03 c0       	rjmp	.+6      	; 0x1aec <TIM_DelayStatus+0xd8>
      }
   }
   else
   {
      return ERROR_NOK;
    1ae6:	81 e0       	ldi	r24, 0x01	; 1
    1ae8:	01 c0       	rjmp	.+2      	; 0x1aec <TIM_DelayStatus+0xd8>
   }
   return 0;
    1aea:	80 e0       	ldi	r24, 0x00	; 0
    1aec:	0f 90       	pop	r0
    1aee:	0f 90       	pop	r0
    1af0:	0f 90       	pop	r0
    1af2:	0f 90       	pop	r0
    1af4:	0f 90       	pop	r0
    1af6:	df 91       	pop	r29
    1af8:	cf 91       	pop	r28
    1afa:	08 95       	ret

00001afc <DISPLAY_MainFunction>:
/*Moving to the interface files*/
uint8_t Number_of_Asteriks = 0;
uint8_t State = OperationStarted;//OperationStarted
uint8_t WrongPassEntries = 0;
void DISPLAY_MainFunction(void)
{
    1afc:	cf 93       	push	r28
    1afe:	df 93       	push	r29
    1b00:	00 d0       	rcall	.+0      	; 0x1b02 <DISPLAY_MainFunction+0x6>
    1b02:	cd b7       	in	r28, 0x3d	; 61
    1b04:	de b7       	in	r29, 0x3e	; 62
	uint8_t static Last_state = OperationStarted;
	uint8_t static Counter = 0;
	DISPLAY_GetNumber_of_Asterisk(&Number_of_Asteriks);
    1b06:	8d e1       	ldi	r24, 0x1D	; 29
    1b08:	91 e0       	ldi	r25, 0x01	; 1
    1b0a:	0e 94 44 0f 	call	0x1e88	; 0x1e88 <DISPLAY_GetNumber_of_Asterisk>
	DISPLAY_GetState(&State);
    1b0e:	83 e6       	ldi	r24, 0x63	; 99
    1b10:	90 e0       	ldi	r25, 0x00	; 0
    1b12:	0e 94 31 0f 	call	0x1e62	; 0x1e62 <DISPLAY_GetState>
	if(Last_state == CorrectPassword || Last_state == WrongPassword || Last_state == Waiting)
    1b16:	80 91 64 00 	lds	r24, 0x0064	; 0x800064 <Last_state.1744>
    1b1a:	86 30       	cpi	r24, 0x06	; 6
    1b1c:	41 f0       	breq	.+16     	; 0x1b2e <DISPLAY_MainFunction+0x32>
    1b1e:	80 91 64 00 	lds	r24, 0x0064	; 0x800064 <Last_state.1744>
    1b22:	87 30       	cpi	r24, 0x07	; 7
    1b24:	21 f0       	breq	.+8      	; 0x1b2e <DISPLAY_MainFunction+0x32>
    1b26:	80 91 64 00 	lds	r24, 0x0064	; 0x800064 <Last_state.1744>
    1b2a:	88 30       	cpi	r24, 0x08	; 8
    1b2c:	21 f4       	brne	.+8      	; 0x1b36 <DISPLAY_MainFunction+0x3a>
	{
		State = Last_state;
    1b2e:	80 91 64 00 	lds	r24, 0x0064	; 0x800064 <Last_state.1744>
    1b32:	80 93 63 00 	sts	0x0063, r24	; 0x800063 <State>
	}
	switch(State)
    1b36:	80 91 63 00 	lds	r24, 0x0063	; 0x800063 <State>
    1b3a:	88 2f       	mov	r24, r24
    1b3c:	90 e0       	ldi	r25, 0x00	; 0
    1b3e:	09 2e       	mov	r0, r25
    1b40:	00 0c       	add	r0, r0
    1b42:	aa 0b       	sbc	r26, r26
    1b44:	bb 0b       	sbc	r27, r27
    1b46:	43 e0       	ldi	r20, 0x03	; 3
    1b48:	50 e0       	ldi	r21, 0x00	; 0
    1b4a:	27 e0       	ldi	r18, 0x07	; 7
    1b4c:	30 e0       	ldi	r19, 0x00	; 0
    1b4e:	84 1b       	sub	r24, r20
    1b50:	95 0b       	sbc	r25, r21
    1b52:	28 17       	cp	r18, r24
    1b54:	39 07       	cpc	r19, r25
    1b56:	08 f4       	brcc	.+2      	; 0x1b5a <DISPLAY_MainFunction+0x5e>
    1b58:	ce c0       	rjmp	.+412    	; 0x1cf6 <DISPLAY_MainFunction+0x1fa>
    1b5a:	8f 5c       	subi	r24, 0xCF	; 207
    1b5c:	9f 4f       	sbci	r25, 0xFF	; 255
    1b5e:	fc 01       	movw	r30, r24
    1b60:	0c 94 e4 10 	jmp	0x21c8	; 0x21c8 <__tablejump2__>
	{
		case SystemLoading:
			while (LCD_SendCommand(LCD_CLR)!=OperationSuccess);
    1b64:	00 00       	nop
    1b66:	81 e0       	ldi	r24, 0x01	; 1
    1b68:	0e 94 22 03 	call	0x644	; 0x644 <LCD_SendCommand>
    1b6c:	88 23       	and	r24, r24
    1b6e:	d9 f7       	brne	.-10     	; 0x1b66 <DISPLAY_MainFunction+0x6a>
			DISPLAY_ShiftAndDisplay(14, (uint8_t*)"System Loading");
    1b70:	67 e6       	ldi	r22, 0x67	; 103
    1b72:	70 e0       	ldi	r23, 0x00	; 0
    1b74:	8e e0       	ldi	r24, 0x0E	; 14
    1b76:	0e 94 8c 0e 	call	0x1d18	; 0x1d18 <DISPLAY_ShiftAndDisplay>
			break;
    1b7a:	c4 c0       	rjmp	.+392    	; 0x1d04 <DISPLAY_MainFunction+0x208>
		case Welcome:
			while (LCD_SendCommand(LCD_CLR)!=OperationSuccess);
    1b7c:	00 00       	nop
    1b7e:	81 e0       	ldi	r24, 0x01	; 1
    1b80:	0e 94 22 03 	call	0x644	; 0x644 <LCD_SendCommand>
    1b84:	88 23       	and	r24, r24
    1b86:	d9 f7       	brne	.-10     	; 0x1b7e <DISPLAY_MainFunction+0x82>
			DISPLAY_ShiftAndDisplay(7, (uint8_t*)"Welcome");
    1b88:	66 e7       	ldi	r22, 0x76	; 118
    1b8a:	70 e0       	ldi	r23, 0x00	; 0
    1b8c:	87 e0       	ldi	r24, 0x07	; 7
    1b8e:	0e 94 8c 0e 	call	0x1d18	; 0x1d18 <DISPLAY_ShiftAndDisplay>
			break;
    1b92:	b8 c0       	rjmp	.+368    	; 0x1d04 <DISPLAY_MainFunction+0x208>
		case PassEntering:
			while (LCD_SendCommand(LCD_CLR)!=OperationSuccess);
    1b94:	00 00       	nop
    1b96:	81 e0       	ldi	r24, 0x01	; 1
    1b98:	0e 94 22 03 	call	0x644	; 0x644 <LCD_SendCommand>
    1b9c:	88 23       	and	r24, r24
    1b9e:	d9 f7       	brne	.-10     	; 0x1b96 <DISPLAY_MainFunction+0x9a>
			while (LCD_SendCommand(0xc0)!=OperationSuccess);
    1ba0:	00 00       	nop
    1ba2:	80 ec       	ldi	r24, 0xC0	; 192
    1ba4:	0e 94 22 03 	call	0x644	; 0x644 <LCD_SendCommand>
    1ba8:	88 23       	and	r24, r24
    1baa:	d9 f7       	brne	.-10     	; 0x1ba2 <DISPLAY_MainFunction+0xa6>
			for(uint8_t iterator = 0; iterator<Number_of_Asteriks; iterator++)
    1bac:	19 82       	std	Y+1, r1	; 0x01
    1bae:	0c c0       	rjmp	.+24     	; 0x1bc8 <DISPLAY_MainFunction+0xcc>
			{
				if(iterator>6)
    1bb0:	89 81       	ldd	r24, Y+1	; 0x01
    1bb2:	87 30       	cpi	r24, 0x07	; 7
    1bb4:	78 f4       	brcc	.+30     	; 0x1bd4 <DISPLAY_MainFunction+0xd8>
				break;
				while(LCD_SendData('*')!=OperationSuccess);
    1bb6:	00 00       	nop
    1bb8:	8a e2       	ldi	r24, 0x2A	; 42
    1bba:	0e 94 35 04 	call	0x86a	; 0x86a <LCD_SendData>
    1bbe:	88 23       	and	r24, r24
    1bc0:	d9 f7       	brne	.-10     	; 0x1bb8 <DISPLAY_MainFunction+0xbc>
			DISPLAY_ShiftAndDisplay(7, (uint8_t*)"Welcome");
			break;
		case PassEntering:
			while (LCD_SendCommand(LCD_CLR)!=OperationSuccess);
			while (LCD_SendCommand(0xc0)!=OperationSuccess);
			for(uint8_t iterator = 0; iterator<Number_of_Asteriks; iterator++)
    1bc2:	89 81       	ldd	r24, Y+1	; 0x01
    1bc4:	8f 5f       	subi	r24, 0xFF	; 255
    1bc6:	89 83       	std	Y+1, r24	; 0x01
    1bc8:	80 91 1d 01 	lds	r24, 0x011D	; 0x80011d <Number_of_Asteriks>
    1bcc:	99 81       	ldd	r25, Y+1	; 0x01
    1bce:	98 17       	cp	r25, r24
    1bd0:	78 f3       	brcs	.-34     	; 0x1bb0 <DISPLAY_MainFunction+0xb4>
    1bd2:	01 c0       	rjmp	.+2      	; 0x1bd6 <DISPLAY_MainFunction+0xda>
			{
				if(iterator>6)
				break;
    1bd4:	00 00       	nop
				while(LCD_SendData('*')!=OperationSuccess);
			}
			DISPLAY_ShiftAndDisplay(10,(uint8_t*)"Enter Pass");
    1bd6:	6e e7       	ldi	r22, 0x7E	; 126
    1bd8:	70 e0       	ldi	r23, 0x00	; 0
    1bda:	8a e0       	ldi	r24, 0x0A	; 10
    1bdc:	0e 94 8c 0e 	call	0x1d18	; 0x1d18 <DISPLAY_ShiftAndDisplay>
			break;
    1be0:	91 c0       	rjmp	.+290    	; 0x1d04 <DISPLAY_MainFunction+0x208>
		case CorrectPassword:
			if(Counter == 40)
    1be2:	80 91 1f 01 	lds	r24, 0x011F	; 0x80011f <Counter.1745>
    1be6:	88 32       	cpi	r24, 0x28	; 40
    1be8:	41 f4       	brne	.+16     	; 0x1bfa <DISPLAY_MainFunction+0xfe>
			{
				WrongPassEntries = 0;
    1bea:	10 92 1e 01 	sts	0x011E, r1	; 0x80011e <WrongPassEntries>
				Counter = 0;
    1bee:	10 92 1f 01 	sts	0x011F, r1	; 0x80011f <Counter.1745>
				State = SevenSegments;
    1bf2:	89 e0       	ldi	r24, 0x09	; 9
    1bf4:	80 93 63 00 	sts	0x0063, r24	; 0x800063 <State>
				break;
    1bf8:	85 c0       	rjmp	.+266    	; 0x1d04 <DISPLAY_MainFunction+0x208>
			}
			while (LCD_SendCommand(LCD_CLR)!=OperationSuccess);
    1bfa:	00 00       	nop
    1bfc:	81 e0       	ldi	r24, 0x01	; 1
    1bfe:	0e 94 22 03 	call	0x644	; 0x644 <LCD_SendCommand>
    1c02:	88 23       	and	r24, r24
    1c04:	d9 f7       	brne	.-10     	; 0x1bfc <DISPLAY_MainFunction+0x100>
			DISPLAY_ShiftAndDisplay(10,(uint8_t*)"Pass OK");
    1c06:	69 e8       	ldi	r22, 0x89	; 137
    1c08:	70 e0       	ldi	r23, 0x00	; 0
    1c0a:	8a e0       	ldi	r24, 0x0A	; 10
    1c0c:	0e 94 8c 0e 	call	0x1d18	; 0x1d18 <DISPLAY_ShiftAndDisplay>
			Counter ++;
    1c10:	80 91 1f 01 	lds	r24, 0x011F	; 0x80011f <Counter.1745>
    1c14:	8f 5f       	subi	r24, 0xFF	; 255
    1c16:	80 93 1f 01 	sts	0x011F, r24	; 0x80011f <Counter.1745>
			break;
    1c1a:	74 c0       	rjmp	.+232    	; 0x1d04 <DISPLAY_MainFunction+0x208>
			
			/*Counter*/
		case WrongPassword:
			if(Counter == 40)
    1c1c:	80 91 1f 01 	lds	r24, 0x011F	; 0x80011f <Counter.1745>
    1c20:	88 32       	cpi	r24, 0x28	; 40
    1c22:	99 f4       	brne	.+38     	; 0x1c4a <DISPLAY_MainFunction+0x14e>
			{
				Counter = 0;
    1c24:	10 92 1f 01 	sts	0x011F, r1	; 0x80011f <Counter.1745>
				WrongPassEntries++;
    1c28:	80 91 1e 01 	lds	r24, 0x011E	; 0x80011e <WrongPassEntries>
    1c2c:	8f 5f       	subi	r24, 0xFF	; 255
    1c2e:	80 93 1e 01 	sts	0x011E, r24	; 0x80011e <WrongPassEntries>
				if(WrongPassEntries==3)
    1c32:	80 91 1e 01 	lds	r24, 0x011E	; 0x80011e <WrongPassEntries>
    1c36:	83 30       	cpi	r24, 0x03	; 3
    1c38:	21 f4       	brne	.+8      	; 0x1c42 <DISPLAY_MainFunction+0x146>
				State = Waiting;
    1c3a:	88 e0       	ldi	r24, 0x08	; 8
    1c3c:	80 93 63 00 	sts	0x0063, r24	; 0x800063 <State>
				else
				State = PassEntering;
				break;
    1c40:	61 c0       	rjmp	.+194    	; 0x1d04 <DISPLAY_MainFunction+0x208>
				Counter = 0;
				WrongPassEntries++;
				if(WrongPassEntries==3)
				State = Waiting;
				else
				State = PassEntering;
    1c42:	85 e0       	ldi	r24, 0x05	; 5
    1c44:	80 93 63 00 	sts	0x0063, r24	; 0x800063 <State>
				break;
    1c48:	5d c0       	rjmp	.+186    	; 0x1d04 <DISPLAY_MainFunction+0x208>
			}
			while (LCD_SendCommand(LCD_CLR)!=OperationSuccess);
    1c4a:	00 00       	nop
    1c4c:	81 e0       	ldi	r24, 0x01	; 1
    1c4e:	0e 94 22 03 	call	0x644	; 0x644 <LCD_SendCommand>
    1c52:	88 23       	and	r24, r24
    1c54:	d9 f7       	brne	.-10     	; 0x1c4c <DISPLAY_MainFunction+0x150>
			DISPLAY_ShiftAndDisplay(10,(uint8_t*)"Wrong Pass");
    1c56:	61 e9       	ldi	r22, 0x91	; 145
    1c58:	70 e0       	ldi	r23, 0x00	; 0
    1c5a:	8a e0       	ldi	r24, 0x0A	; 10
    1c5c:	0e 94 8c 0e 	call	0x1d18	; 0x1d18 <DISPLAY_ShiftAndDisplay>
			/*check the counter*/
			break;
    1c60:	51 c0       	rjmp	.+162    	; 0x1d04 <DISPLAY_MainFunction+0x208>
		case Waiting:
			if(Counter == 200)
    1c62:	80 91 1f 01 	lds	r24, 0x011F	; 0x80011f <Counter.1745>
    1c66:	88 3c       	cpi	r24, 0xC8	; 200
    1c68:	41 f4       	brne	.+16     	; 0x1c7a <DISPLAY_MainFunction+0x17e>
			{
				WrongPassEntries = 0;
    1c6a:	10 92 1e 01 	sts	0x011E, r1	; 0x80011e <WrongPassEntries>
				Counter = 0;
    1c6e:	10 92 1f 01 	sts	0x011F, r1	; 0x80011f <Counter.1745>
				State = PassEntering;
    1c72:	85 e0       	ldi	r24, 0x05	; 5
    1c74:	80 93 63 00 	sts	0x0063, r24	; 0x800063 <State>
				break;
    1c78:	45 c0       	rjmp	.+138    	; 0x1d04 <DISPLAY_MainFunction+0x208>
			}
			while (LCD_SendCommand(LCD_CLR)!=OperationSuccess);
    1c7a:	00 00       	nop
    1c7c:	81 e0       	ldi	r24, 0x01	; 1
    1c7e:	0e 94 22 03 	call	0x644	; 0x644 <LCD_SendCommand>
    1c82:	88 23       	and	r24, r24
    1c84:	d9 f7       	brne	.-10     	; 0x1c7c <DISPLAY_MainFunction+0x180>
			DISPLAY_ShiftAndDisplay(7,(uint8_t*)"Waiting");
    1c86:	6c e9       	ldi	r22, 0x9C	; 156
    1c88:	70 e0       	ldi	r23, 0x00	; 0
    1c8a:	87 e0       	ldi	r24, 0x07	; 7
    1c8c:	0e 94 8c 0e 	call	0x1d18	; 0x1d18 <DISPLAY_ShiftAndDisplay>
			/*seconds remaining in the second row*/
			Counter ++;
    1c90:	80 91 1f 01 	lds	r24, 0x011F	; 0x80011f <Counter.1745>
    1c94:	8f 5f       	subi	r24, 0xFF	; 255
    1c96:	80 93 1f 01 	sts	0x011F, r24	; 0x80011f <Counter.1745>
			break;
    1c9a:	34 c0       	rjmp	.+104    	; 0x1d04 <DISPLAY_MainFunction+0x208>
		case SevenSegments: 
			while (LCD_SendCommand(LCD_CLR)!=OperationSuccess);
    1c9c:	00 00       	nop
    1c9e:	81 e0       	ldi	r24, 0x01	; 1
    1ca0:	0e 94 22 03 	call	0x644	; 0x644 <LCD_SendCommand>
    1ca4:	88 23       	and	r24, r24
    1ca6:	d9 f7       	brne	.-10     	; 0x1c9e <DISPLAY_MainFunction+0x1a2>
			DISPLAY_ShiftAndDisplay(12,(uint8_t*)"System is ON");
    1ca8:	64 ea       	ldi	r22, 0xA4	; 164
    1caa:	70 e0       	ldi	r23, 0x00	; 0
    1cac:	8c e0       	ldi	r24, 0x0C	; 12
    1cae:	0e 94 8c 0e 	call	0x1d18	; 0x1d18 <DISPLAY_ShiftAndDisplay>
			/*task of seven segment*/
			break;
    1cb2:	28 c0       	rjmp	.+80     	; 0x1d04 <DISPLAY_MainFunction+0x208>
		case ChangePassword:
			while (LCD_SendCommand(LCD_CLR)!=OperationSuccess);
    1cb4:	00 00       	nop
    1cb6:	81 e0       	ldi	r24, 0x01	; 1
    1cb8:	0e 94 22 03 	call	0x644	; 0x644 <LCD_SendCommand>
    1cbc:	88 23       	and	r24, r24
    1cbe:	d9 f7       	brne	.-10     	; 0x1cb6 <DISPLAY_MainFunction+0x1ba>
			for(uint8_t iterator = 0; iterator<Number_of_Asteriks; iterator++)
    1cc0:	1a 82       	std	Y+2, r1	; 0x02
    1cc2:	0c c0       	rjmp	.+24     	; 0x1cdc <DISPLAY_MainFunction+0x1e0>
			{
				if(iterator>6)
    1cc4:	8a 81       	ldd	r24, Y+2	; 0x02
    1cc6:	87 30       	cpi	r24, 0x07	; 7
    1cc8:	78 f4       	brcc	.+30     	; 0x1ce8 <DISPLAY_MainFunction+0x1ec>
				break;
				while(LCD_SendData('*')!=OperationSuccess);
    1cca:	00 00       	nop
    1ccc:	8a e2       	ldi	r24, 0x2A	; 42
    1cce:	0e 94 35 04 	call	0x86a	; 0x86a <LCD_SendData>
    1cd2:	88 23       	and	r24, r24
    1cd4:	d9 f7       	brne	.-10     	; 0x1ccc <DISPLAY_MainFunction+0x1d0>
			DISPLAY_ShiftAndDisplay(12,(uint8_t*)"System is ON");
			/*task of seven segment*/
			break;
		case ChangePassword:
			while (LCD_SendCommand(LCD_CLR)!=OperationSuccess);
			for(uint8_t iterator = 0; iterator<Number_of_Asteriks; iterator++)
    1cd6:	8a 81       	ldd	r24, Y+2	; 0x02
    1cd8:	8f 5f       	subi	r24, 0xFF	; 255
    1cda:	8a 83       	std	Y+2, r24	; 0x02
    1cdc:	80 91 1d 01 	lds	r24, 0x011D	; 0x80011d <Number_of_Asteriks>
    1ce0:	9a 81       	ldd	r25, Y+2	; 0x02
    1ce2:	98 17       	cp	r25, r24
    1ce4:	78 f3       	brcs	.-34     	; 0x1cc4 <DISPLAY_MainFunction+0x1c8>
    1ce6:	01 c0       	rjmp	.+2      	; 0x1cea <DISPLAY_MainFunction+0x1ee>
			{
				if(iterator>6)
				break;
    1ce8:	00 00       	nop
				while(LCD_SendData('*')!=OperationSuccess);
			}
			DISPLAY_ShiftAndDisplay(13,(uint8_t*)"Changing Pass");
    1cea:	61 eb       	ldi	r22, 0xB1	; 177
    1cec:	70 e0       	ldi	r23, 0x00	; 0
    1cee:	8d e0       	ldi	r24, 0x0D	; 13
    1cf0:	0e 94 8c 0e 	call	0x1d18	; 0x1d18 <DISPLAY_ShiftAndDisplay>
			/*Stars on the second ROW*/
			break;
    1cf4:	07 c0       	rjmp	.+14     	; 0x1d04 <DISPLAY_MainFunction+0x208>
		default:
			while (LCD_SendCommand(LCD_CLR)!=OperationSuccess);
    1cf6:	00 00       	nop
    1cf8:	81 e0       	ldi	r24, 0x01	; 1
    1cfa:	0e 94 22 03 	call	0x644	; 0x644 <LCD_SendCommand>
    1cfe:	88 23       	and	r24, r24
    1d00:	d9 f7       	brne	.-10     	; 0x1cf8 <DISPLAY_MainFunction+0x1fc>
			break;
    1d02:	00 00       	nop
	}
	Last_state = State;
    1d04:	80 91 63 00 	lds	r24, 0x0063	; 0x800063 <State>
    1d08:	80 93 64 00 	sts	0x0064, r24	; 0x800064 <Last_state.1744>
}
    1d0c:	00 00       	nop
    1d0e:	0f 90       	pop	r0
    1d10:	0f 90       	pop	r0
    1d12:	df 91       	pop	r29
    1d14:	cf 91       	pop	r28
    1d16:	08 95       	ret

00001d18 <DISPLAY_ShiftAndDisplay>:
void DISPLAY_ShiftAndDisplay(uint8_t StringLength, uint8_t* StringPTR)
{
    1d18:	cf 93       	push	r28
    1d1a:	df 93       	push	r29
    1d1c:	00 d0       	rcall	.+0      	; 0x1d1e <DISPLAY_ShiftAndDisplay+0x6>
    1d1e:	1f 92       	push	r1
    1d20:	cd b7       	in	r28, 0x3d	; 61
    1d22:	de b7       	in	r29, 0x3e	; 62
    1d24:	89 83       	std	Y+1, r24	; 0x01
    1d26:	7b 83       	std	Y+3, r23	; 0x03
    1d28:	6a 83       	std	Y+2, r22	; 0x02
	uint8_t static State = OperationStarted;
	
	switch(State)
    1d2a:	80 91 65 00 	lds	r24, 0x0065	; 0x800065 <State.1804>
    1d2e:	88 2f       	mov	r24, r24
    1d30:	90 e0       	ldi	r25, 0x00	; 0
    1d32:	82 30       	cpi	r24, 0x02	; 2
    1d34:	91 05       	cpc	r25, r1
    1d36:	a9 f1       	breq	.+106    	; 0x1da2 <DISPLAY_ShiftAndDisplay+0x8a>
    1d38:	8f 3f       	cpi	r24, 0xFF	; 255
    1d3a:	91 05       	cpc	r25, r1
    1d3c:	21 f0       	breq	.+8      	; 0x1d46 <DISPLAY_ShiftAndDisplay+0x2e>
    1d3e:	01 97       	sbiw	r24, 0x01	; 1
    1d40:	09 f4       	brne	.+2      	; 0x1d44 <DISPLAY_ShiftAndDisplay+0x2c>
    1d42:	66 c0       	rjmp	.+204    	; 0x1e10 <DISPLAY_ShiftAndDisplay+0xf8>
			while(LCD_SendCommand(0x80|Position) != OperationSuccess);
			while(LCD_SendString(StringPTR) != OperationSuccess);
			while(LCD_SendData(' ')!= OperationSuccess);
			break;
		default:
			break;
    1d44:	87 c0       	rjmp	.+270    	; 0x1e54 <DISPLAY_ShiftAndDisplay+0x13c>
	uint8_t static State = OperationStarted;
	
	switch(State)
	{
		case OperationStarted:
			if(Position<16-StringLength)
    1d46:	80 91 1c 01 	lds	r24, 0x011C	; 0x80011c <Position>
    1d4a:	28 2f       	mov	r18, r24
    1d4c:	30 e0       	ldi	r19, 0x00	; 0
    1d4e:	89 81       	ldd	r24, Y+1	; 0x01
    1d50:	88 2f       	mov	r24, r24
    1d52:	90 e0       	ldi	r25, 0x00	; 0
    1d54:	40 e1       	ldi	r20, 0x10	; 16
    1d56:	50 e0       	ldi	r21, 0x00	; 0
    1d58:	ba 01       	movw	r22, r20
    1d5a:	68 1b       	sub	r22, r24
    1d5c:	79 0b       	sbc	r23, r25
    1d5e:	cb 01       	movw	r24, r22
    1d60:	28 17       	cp	r18, r24
    1d62:	39 07       	cpc	r19, r25
    1d64:	24 f4       	brge	.+8      	; 0x1d6e <DISPLAY_ShiftAndDisplay+0x56>
			{
				State = ShiftingRight;
    1d66:	82 e0       	ldi	r24, 0x02	; 2
    1d68:	80 93 65 00 	sts	0x0065, r24	; 0x800065 <State.1804>
			else
			{
				Position = 0;
				State = ShiftingRight;
			}
			break;
    1d6c:	73 c0       	rjmp	.+230    	; 0x1e54 <DISPLAY_ShiftAndDisplay+0x13c>
		case OperationStarted:
			if(Position<16-StringLength)
			{
				State = ShiftingRight;
			}
			else if (Position == 15-StringLength)
    1d6e:	80 91 1c 01 	lds	r24, 0x011C	; 0x80011c <Position>
    1d72:	28 2f       	mov	r18, r24
    1d74:	30 e0       	ldi	r19, 0x00	; 0
    1d76:	89 81       	ldd	r24, Y+1	; 0x01
    1d78:	88 2f       	mov	r24, r24
    1d7a:	90 e0       	ldi	r25, 0x00	; 0
    1d7c:	4f e0       	ldi	r20, 0x0F	; 15
    1d7e:	50 e0       	ldi	r21, 0x00	; 0
    1d80:	ba 01       	movw	r22, r20
    1d82:	68 1b       	sub	r22, r24
    1d84:	79 0b       	sbc	r23, r25
    1d86:	cb 01       	movw	r24, r22
    1d88:	28 17       	cp	r18, r24
    1d8a:	39 07       	cpc	r19, r25
    1d8c:	21 f4       	brne	.+8      	; 0x1d96 <DISPLAY_ShiftAndDisplay+0x7e>
			{
				State = ShiftingLeft;
    1d8e:	81 e0       	ldi	r24, 0x01	; 1
    1d90:	80 93 65 00 	sts	0x0065, r24	; 0x800065 <State.1804>
			else
			{
				Position = 0;
				State = ShiftingRight;
			}
			break;
    1d94:	5f c0       	rjmp	.+190    	; 0x1e54 <DISPLAY_ShiftAndDisplay+0x13c>
			{
				State = ShiftingLeft;
			}
			else
			{
				Position = 0;
    1d96:	10 92 1c 01 	sts	0x011C, r1	; 0x80011c <Position>
				State = ShiftingRight;
    1d9a:	82 e0       	ldi	r24, 0x02	; 2
    1d9c:	80 93 65 00 	sts	0x0065, r24	; 0x800065 <State.1804>
			}
			break;
    1da0:	59 c0       	rjmp	.+178    	; 0x1e54 <DISPLAY_ShiftAndDisplay+0x13c>
		case ShiftingRight:
			while(LCD_SendCommand(0x80|Position) != OperationSuccess);
    1da2:	00 00       	nop
    1da4:	80 91 1c 01 	lds	r24, 0x011C	; 0x80011c <Position>
    1da8:	80 68       	ori	r24, 0x80	; 128
    1daa:	0e 94 22 03 	call	0x644	; 0x644 <LCD_SendCommand>
    1dae:	88 23       	and	r24, r24
    1db0:	c9 f7       	brne	.-14     	; 0x1da4 <DISPLAY_ShiftAndDisplay+0x8c>
			while(LCD_SendString(StringPTR) != OperationSuccess);
    1db2:	00 00       	nop
    1db4:	8a 81       	ldd	r24, Y+2	; 0x02
    1db6:	9b 81       	ldd	r25, Y+3	; 0x03
    1db8:	0e 94 a9 06 	call	0xd52	; 0xd52 <LCD_SendString>
    1dbc:	88 23       	and	r24, r24
    1dbe:	d1 f7       	brne	.-12     	; 0x1db4 <DISPLAY_ShiftAndDisplay+0x9c>
			while(LCD_SendCommand(0x80|(Position-1)) != OperationSuccess);
    1dc0:	00 00       	nop
    1dc2:	80 91 1c 01 	lds	r24, 0x011C	; 0x80011c <Position>
    1dc6:	81 50       	subi	r24, 0x01	; 1
    1dc8:	80 68       	ori	r24, 0x80	; 128
    1dca:	0e 94 22 03 	call	0x644	; 0x644 <LCD_SendCommand>
    1dce:	88 23       	and	r24, r24
    1dd0:	c1 f7       	brne	.-16     	; 0x1dc2 <DISPLAY_ShiftAndDisplay+0xaa>
			while(LCD_SendData(' ')!= OperationSuccess);
    1dd2:	00 00       	nop
    1dd4:	80 e2       	ldi	r24, 0x20	; 32
    1dd6:	0e 94 35 04 	call	0x86a	; 0x86a <LCD_SendData>
    1dda:	88 23       	and	r24, r24
    1ddc:	d9 f7       	brne	.-10     	; 0x1dd4 <DISPLAY_ShiftAndDisplay+0xbc>
			if (Position == 16-StringLength)
    1dde:	80 91 1c 01 	lds	r24, 0x011C	; 0x80011c <Position>
    1de2:	28 2f       	mov	r18, r24
    1de4:	30 e0       	ldi	r19, 0x00	; 0
    1de6:	89 81       	ldd	r24, Y+1	; 0x01
    1de8:	88 2f       	mov	r24, r24
    1dea:	90 e0       	ldi	r25, 0x00	; 0
    1dec:	40 e1       	ldi	r20, 0x10	; 16
    1dee:	50 e0       	ldi	r21, 0x00	; 0
    1df0:	ba 01       	movw	r22, r20
    1df2:	68 1b       	sub	r22, r24
    1df4:	79 0b       	sbc	r23, r25
    1df6:	cb 01       	movw	r24, r22
    1df8:	28 17       	cp	r18, r24
    1dfa:	39 07       	cpc	r19, r25
    1dfc:	19 f4       	brne	.+6      	; 0x1e04 <DISPLAY_ShiftAndDisplay+0xec>
			{
				 State = ShiftingLeft;
    1dfe:	81 e0       	ldi	r24, 0x01	; 1
    1e00:	80 93 65 00 	sts	0x0065, r24	; 0x800065 <State.1804>
			}
			Position++;
    1e04:	80 91 1c 01 	lds	r24, 0x011C	; 0x80011c <Position>
    1e08:	8f 5f       	subi	r24, 0xFF	; 255
    1e0a:	80 93 1c 01 	sts	0x011C, r24	; 0x80011c <Position>
			break;
    1e0e:	22 c0       	rjmp	.+68     	; 0x1e54 <DISPLAY_ShiftAndDisplay+0x13c>
		case ShiftingLeft:
			Position--;
    1e10:	80 91 1c 01 	lds	r24, 0x011C	; 0x80011c <Position>
    1e14:	81 50       	subi	r24, 0x01	; 1
    1e16:	80 93 1c 01 	sts	0x011C, r24	; 0x80011c <Position>
			if (Position == 0)
    1e1a:	80 91 1c 01 	lds	r24, 0x011C	; 0x80011c <Position>
    1e1e:	88 23       	and	r24, r24
    1e20:	19 f4       	brne	.+6      	; 0x1e28 <DISPLAY_ShiftAndDisplay+0x110>
			{
				State = ShiftingRight;
    1e22:	82 e0       	ldi	r24, 0x02	; 2
    1e24:	80 93 65 00 	sts	0x0065, r24	; 0x800065 <State.1804>
			}
			while(LCD_SendCommand(0x80|Position) != OperationSuccess);
    1e28:	00 00       	nop
    1e2a:	80 91 1c 01 	lds	r24, 0x011C	; 0x80011c <Position>
    1e2e:	80 68       	ori	r24, 0x80	; 128
    1e30:	0e 94 22 03 	call	0x644	; 0x644 <LCD_SendCommand>
    1e34:	88 23       	and	r24, r24
    1e36:	c9 f7       	brne	.-14     	; 0x1e2a <DISPLAY_ShiftAndDisplay+0x112>
			while(LCD_SendString(StringPTR) != OperationSuccess);
    1e38:	00 00       	nop
    1e3a:	8a 81       	ldd	r24, Y+2	; 0x02
    1e3c:	9b 81       	ldd	r25, Y+3	; 0x03
    1e3e:	0e 94 a9 06 	call	0xd52	; 0xd52 <LCD_SendString>
    1e42:	88 23       	and	r24, r24
    1e44:	d1 f7       	brne	.-12     	; 0x1e3a <DISPLAY_ShiftAndDisplay+0x122>
			while(LCD_SendData(' ')!= OperationSuccess);
    1e46:	00 00       	nop
    1e48:	80 e2       	ldi	r24, 0x20	; 32
    1e4a:	0e 94 35 04 	call	0x86a	; 0x86a <LCD_SendData>
    1e4e:	88 23       	and	r24, r24
    1e50:	d9 f7       	brne	.-10     	; 0x1e48 <DISPLAY_ShiftAndDisplay+0x130>
			break;
    1e52:	00 00       	nop
		default:
			break;
	}
    1e54:	00 00       	nop
    1e56:	0f 90       	pop	r0
    1e58:	0f 90       	pop	r0
    1e5a:	0f 90       	pop	r0
    1e5c:	df 91       	pop	r29
    1e5e:	cf 91       	pop	r28
    1e60:	08 95       	ret

00001e62 <DISPLAY_GetState>:
#include "DISPLAY_Interface.h"
uint8_t static State = OperationStarted;
uint8_t static Number_of_Asteriks = 0;

void DISPLAY_GetState(uint8_t* StateVal)
{
    1e62:	cf 93       	push	r28
    1e64:	df 93       	push	r29
    1e66:	00 d0       	rcall	.+0      	; 0x1e68 <DISPLAY_GetState+0x6>
    1e68:	cd b7       	in	r28, 0x3d	; 61
    1e6a:	de b7       	in	r29, 0x3e	; 62
    1e6c:	9a 83       	std	Y+2, r25	; 0x02
    1e6e:	89 83       	std	Y+1, r24	; 0x01
	*StateVal = State;
    1e70:	20 91 66 00 	lds	r18, 0x0066	; 0x800066 <State>
    1e74:	89 81       	ldd	r24, Y+1	; 0x01
    1e76:	9a 81       	ldd	r25, Y+2	; 0x02
    1e78:	fc 01       	movw	r30, r24
    1e7a:	20 83       	st	Z, r18
}
    1e7c:	00 00       	nop
    1e7e:	0f 90       	pop	r0
    1e80:	0f 90       	pop	r0
    1e82:	df 91       	pop	r29
    1e84:	cf 91       	pop	r28
    1e86:	08 95       	ret

00001e88 <DISPLAY_GetNumber_of_Asterisk>:
void DISPLAY_GetNumber_of_Asterisk(uint8_t* AsterisksNumVal)
{
    1e88:	cf 93       	push	r28
    1e8a:	df 93       	push	r29
    1e8c:	00 d0       	rcall	.+0      	; 0x1e8e <DISPLAY_GetNumber_of_Asterisk+0x6>
    1e8e:	cd b7       	in	r28, 0x3d	; 61
    1e90:	de b7       	in	r29, 0x3e	; 62
    1e92:	9a 83       	std	Y+2, r25	; 0x02
    1e94:	89 83       	std	Y+1, r24	; 0x01
	*AsterisksNumVal = Number_of_Asteriks;
    1e96:	20 91 20 01 	lds	r18, 0x0120	; 0x800120 <Number_of_Asteriks>
    1e9a:	89 81       	ldd	r24, Y+1	; 0x01
    1e9c:	9a 81       	ldd	r25, Y+2	; 0x02
    1e9e:	fc 01       	movw	r30, r24
    1ea0:	20 83       	st	Z, r18
}
    1ea2:	00 00       	nop
    1ea4:	0f 90       	pop	r0
    1ea6:	0f 90       	pop	r0
    1ea8:	df 91       	pop	r29
    1eaa:	cf 91       	pop	r28
    1eac:	08 95       	ret

00001eae <main>:
		vTaskDelay(2);
	}
}*/

int main(void)
{
    1eae:	cf 93       	push	r28
    1eb0:	df 93       	push	r29
    1eb2:	00 d0       	rcall	.+0      	; 0x1eb4 <main+0x6>
    1eb4:	00 d0       	rcall	.+0      	; 0x1eb6 <main+0x8>
    1eb6:	1f 92       	push	r1
    1eb8:	cd b7       	in	r28, 0x3d	; 61
    1eba:	de b7       	in	r29, 0x3e	; 62
	//DIO_SetPinDirection(PORT_D,PIN0,PIN_OUTPUT);
	//EEPROM_Write('A',5);
	Number_of_Asteriks =6;
    1ebc:	86 e0       	ldi	r24, 0x06	; 6
    1ebe:	80 93 1d 01 	sts	0x011D, r24	; 0x80011d <Number_of_Asteriks>
	uint8_t iterator = 0;
    1ec2:	19 82       	std	Y+1, r1	; 0x01
	while(LCD_Init()!= OperationSuccess);
    1ec4:	00 00       	nop
    1ec6:	0e 94 26 05 	call	0xa4c	; 0xa4c <LCD_Init>
    1eca:	88 23       	and	r24, r24
    1ecc:	e1 f7       	brne	.-8      	; 0x1ec6 <main+0x18>
	//EEPROM_write(5, 'A');
	//x=EEPROM_read(5);
	while (1) 
    {
		//DISPLAY_ShiftAndDisplay(5,(uint8_t*)"AHMED");
		DISPLAY_MainFunction();
    1ece:	0e 94 7e 0d 	call	0x1afc	; 0x1afc <DISPLAY_MainFunction>
		iterator ++;
    1ed2:	89 81       	ldd	r24, Y+1	; 0x01
    1ed4:	8f 5f       	subi	r24, 0xFF	; 255
    1ed6:	89 83       	std	Y+1, r24	; 0x01
		//if(x=='A')
		//DIO_WritePin(PORT_D,PIN0,PIN_HIGH);
		//LCD_SendCommand(0x1C);
		for(volatile uint32_t i = 0; i<100000;i++);
    1ed8:	1a 82       	std	Y+2, r1	; 0x02
    1eda:	1b 82       	std	Y+3, r1	; 0x03
    1edc:	1c 82       	std	Y+4, r1	; 0x04
    1ede:	1d 82       	std	Y+5, r1	; 0x05
    1ee0:	0b c0       	rjmp	.+22     	; 0x1ef8 <main+0x4a>
    1ee2:	8a 81       	ldd	r24, Y+2	; 0x02
    1ee4:	9b 81       	ldd	r25, Y+3	; 0x03
    1ee6:	ac 81       	ldd	r26, Y+4	; 0x04
    1ee8:	bd 81       	ldd	r27, Y+5	; 0x05
    1eea:	01 96       	adiw	r24, 0x01	; 1
    1eec:	a1 1d       	adc	r26, r1
    1eee:	b1 1d       	adc	r27, r1
    1ef0:	8a 83       	std	Y+2, r24	; 0x02
    1ef2:	9b 83       	std	Y+3, r25	; 0x03
    1ef4:	ac 83       	std	Y+4, r26	; 0x04
    1ef6:	bd 83       	std	Y+5, r27	; 0x05
    1ef8:	8a 81       	ldd	r24, Y+2	; 0x02
    1efa:	9b 81       	ldd	r25, Y+3	; 0x03
    1efc:	ac 81       	ldd	r26, Y+4	; 0x04
    1efe:	bd 81       	ldd	r27, Y+5	; 0x05
    1f00:	80 3a       	cpi	r24, 0xA0	; 160
    1f02:	96 48       	sbci	r25, 0x86	; 134
    1f04:	a1 40       	sbci	r26, 0x01	; 1
    1f06:	b1 05       	cpc	r27, r1
    1f08:	60 f3       	brcs	.-40     	; 0x1ee2 <main+0x34>
		if(iterator == 20)
    1f0a:	89 81       	ldd	r24, Y+1	; 0x01
    1f0c:	84 31       	cpi	r24, 0x14	; 20
    1f0e:	f9 f6       	brne	.-66     	; 0x1ece <main+0x20>
			State = PassEntering;
    1f10:	85 e0       	ldi	r24, 0x05	; 5
    1f12:	80 93 63 00 	sts	0x0063, r24	; 0x800063 <State>
		//DISPLAY_ShiftAndDisplay(5,(uint8_t*)"ADEL");
		//for(volatile uint32_t i = 0; i<100000;i++);
		//LCD_ReadDispLoc(LCD_CURS_Position0,&x);
		
    }
    1f16:	db cf       	rjmp	.-74     	; 0x1ece <main+0x20>

00001f18 <__cmpsf2>:
    1f18:	0e 94 6f 10 	call	0x20de	; 0x20de <__fp_cmp>
    1f1c:	08 f4       	brcc	.+2      	; 0x1f20 <__cmpsf2+0x8>
    1f1e:	81 e0       	ldi	r24, 0x01	; 1
    1f20:	08 95       	ret

00001f22 <__divsf3>:
    1f22:	0e 94 a5 0f 	call	0x1f4a	; 0x1f4a <__divsf3x>
    1f26:	0c 94 aa 10 	jmp	0x2154	; 0x2154 <__fp_round>
    1f2a:	0e 94 a3 10 	call	0x2146	; 0x2146 <__fp_pscB>
    1f2e:	58 f0       	brcs	.+22     	; 0x1f46 <__divsf3+0x24>
    1f30:	0e 94 9c 10 	call	0x2138	; 0x2138 <__fp_pscA>
    1f34:	40 f0       	brcs	.+16     	; 0x1f46 <__divsf3+0x24>
    1f36:	29 f4       	brne	.+10     	; 0x1f42 <__divsf3+0x20>
    1f38:	5f 3f       	cpi	r21, 0xFF	; 255
    1f3a:	29 f0       	breq	.+10     	; 0x1f46 <__divsf3+0x24>
    1f3c:	0c 94 93 10 	jmp	0x2126	; 0x2126 <__fp_inf>
    1f40:	51 11       	cpse	r21, r1
    1f42:	0c 94 de 10 	jmp	0x21bc	; 0x21bc <__fp_szero>
    1f46:	0c 94 99 10 	jmp	0x2132	; 0x2132 <__fp_nan>

00001f4a <__divsf3x>:
    1f4a:	0e 94 bb 10 	call	0x2176	; 0x2176 <__fp_split3>
    1f4e:	68 f3       	brcs	.-38     	; 0x1f2a <__divsf3+0x8>

00001f50 <__divsf3_pse>:
    1f50:	99 23       	and	r25, r25
    1f52:	b1 f3       	breq	.-20     	; 0x1f40 <__divsf3+0x1e>
    1f54:	55 23       	and	r21, r21
    1f56:	91 f3       	breq	.-28     	; 0x1f3c <__divsf3+0x1a>
    1f58:	95 1b       	sub	r25, r21
    1f5a:	55 0b       	sbc	r21, r21
    1f5c:	bb 27       	eor	r27, r27
    1f5e:	aa 27       	eor	r26, r26
    1f60:	62 17       	cp	r22, r18
    1f62:	73 07       	cpc	r23, r19
    1f64:	84 07       	cpc	r24, r20
    1f66:	38 f0       	brcs	.+14     	; 0x1f76 <__divsf3_pse+0x26>
    1f68:	9f 5f       	subi	r25, 0xFF	; 255
    1f6a:	5f 4f       	sbci	r21, 0xFF	; 255
    1f6c:	22 0f       	add	r18, r18
    1f6e:	33 1f       	adc	r19, r19
    1f70:	44 1f       	adc	r20, r20
    1f72:	aa 1f       	adc	r26, r26
    1f74:	a9 f3       	breq	.-22     	; 0x1f60 <__divsf3_pse+0x10>
    1f76:	35 d0       	rcall	.+106    	; 0x1fe2 <__divsf3_pse+0x92>
    1f78:	0e 2e       	mov	r0, r30
    1f7a:	3a f0       	brmi	.+14     	; 0x1f8a <__divsf3_pse+0x3a>
    1f7c:	e0 e8       	ldi	r30, 0x80	; 128
    1f7e:	32 d0       	rcall	.+100    	; 0x1fe4 <__divsf3_pse+0x94>
    1f80:	91 50       	subi	r25, 0x01	; 1
    1f82:	50 40       	sbci	r21, 0x00	; 0
    1f84:	e6 95       	lsr	r30
    1f86:	00 1c       	adc	r0, r0
    1f88:	ca f7       	brpl	.-14     	; 0x1f7c <__divsf3_pse+0x2c>
    1f8a:	2b d0       	rcall	.+86     	; 0x1fe2 <__divsf3_pse+0x92>
    1f8c:	fe 2f       	mov	r31, r30
    1f8e:	29 d0       	rcall	.+82     	; 0x1fe2 <__divsf3_pse+0x92>
    1f90:	66 0f       	add	r22, r22
    1f92:	77 1f       	adc	r23, r23
    1f94:	88 1f       	adc	r24, r24
    1f96:	bb 1f       	adc	r27, r27
    1f98:	26 17       	cp	r18, r22
    1f9a:	37 07       	cpc	r19, r23
    1f9c:	48 07       	cpc	r20, r24
    1f9e:	ab 07       	cpc	r26, r27
    1fa0:	b0 e8       	ldi	r27, 0x80	; 128
    1fa2:	09 f0       	breq	.+2      	; 0x1fa6 <__divsf3_pse+0x56>
    1fa4:	bb 0b       	sbc	r27, r27
    1fa6:	80 2d       	mov	r24, r0
    1fa8:	bf 01       	movw	r22, r30
    1faa:	ff 27       	eor	r31, r31
    1fac:	93 58       	subi	r25, 0x83	; 131
    1fae:	5f 4f       	sbci	r21, 0xFF	; 255
    1fb0:	3a f0       	brmi	.+14     	; 0x1fc0 <__divsf3_pse+0x70>
    1fb2:	9e 3f       	cpi	r25, 0xFE	; 254
    1fb4:	51 05       	cpc	r21, r1
    1fb6:	78 f0       	brcs	.+30     	; 0x1fd6 <__divsf3_pse+0x86>
    1fb8:	0c 94 93 10 	jmp	0x2126	; 0x2126 <__fp_inf>
    1fbc:	0c 94 de 10 	jmp	0x21bc	; 0x21bc <__fp_szero>
    1fc0:	5f 3f       	cpi	r21, 0xFF	; 255
    1fc2:	e4 f3       	brlt	.-8      	; 0x1fbc <__divsf3_pse+0x6c>
    1fc4:	98 3e       	cpi	r25, 0xE8	; 232
    1fc6:	d4 f3       	brlt	.-12     	; 0x1fbc <__divsf3_pse+0x6c>
    1fc8:	86 95       	lsr	r24
    1fca:	77 95       	ror	r23
    1fcc:	67 95       	ror	r22
    1fce:	b7 95       	ror	r27
    1fd0:	f7 95       	ror	r31
    1fd2:	9f 5f       	subi	r25, 0xFF	; 255
    1fd4:	c9 f7       	brne	.-14     	; 0x1fc8 <__divsf3_pse+0x78>
    1fd6:	88 0f       	add	r24, r24
    1fd8:	91 1d       	adc	r25, r1
    1fda:	96 95       	lsr	r25
    1fdc:	87 95       	ror	r24
    1fde:	97 f9       	bld	r25, 7
    1fe0:	08 95       	ret
    1fe2:	e1 e0       	ldi	r30, 0x01	; 1
    1fe4:	66 0f       	add	r22, r22
    1fe6:	77 1f       	adc	r23, r23
    1fe8:	88 1f       	adc	r24, r24
    1fea:	bb 1f       	adc	r27, r27
    1fec:	62 17       	cp	r22, r18
    1fee:	73 07       	cpc	r23, r19
    1ff0:	84 07       	cpc	r24, r20
    1ff2:	ba 07       	cpc	r27, r26
    1ff4:	20 f0       	brcs	.+8      	; 0x1ffe <__divsf3_pse+0xae>
    1ff6:	62 1b       	sub	r22, r18
    1ff8:	73 0b       	sbc	r23, r19
    1ffa:	84 0b       	sbc	r24, r20
    1ffc:	ba 0b       	sbc	r27, r26
    1ffe:	ee 1f       	adc	r30, r30
    2000:	88 f7       	brcc	.-30     	; 0x1fe4 <__divsf3_pse+0x94>
    2002:	e0 95       	com	r30
    2004:	08 95       	ret

00002006 <__fixunssfsi>:
    2006:	0e 94 c3 10 	call	0x2186	; 0x2186 <__fp_splitA>
    200a:	88 f0       	brcs	.+34     	; 0x202e <__fixunssfsi+0x28>
    200c:	9f 57       	subi	r25, 0x7F	; 127
    200e:	98 f0       	brcs	.+38     	; 0x2036 <__fixunssfsi+0x30>
    2010:	b9 2f       	mov	r27, r25
    2012:	99 27       	eor	r25, r25
    2014:	b7 51       	subi	r27, 0x17	; 23
    2016:	b0 f0       	brcs	.+44     	; 0x2044 <__fixunssfsi+0x3e>
    2018:	e1 f0       	breq	.+56     	; 0x2052 <__fixunssfsi+0x4c>
    201a:	66 0f       	add	r22, r22
    201c:	77 1f       	adc	r23, r23
    201e:	88 1f       	adc	r24, r24
    2020:	99 1f       	adc	r25, r25
    2022:	1a f0       	brmi	.+6      	; 0x202a <__fixunssfsi+0x24>
    2024:	ba 95       	dec	r27
    2026:	c9 f7       	brne	.-14     	; 0x201a <__fixunssfsi+0x14>
    2028:	14 c0       	rjmp	.+40     	; 0x2052 <__fixunssfsi+0x4c>
    202a:	b1 30       	cpi	r27, 0x01	; 1
    202c:	91 f0       	breq	.+36     	; 0x2052 <__fixunssfsi+0x4c>
    202e:	0e 94 dd 10 	call	0x21ba	; 0x21ba <__fp_zero>
    2032:	b1 e0       	ldi	r27, 0x01	; 1
    2034:	08 95       	ret
    2036:	0c 94 dd 10 	jmp	0x21ba	; 0x21ba <__fp_zero>
    203a:	67 2f       	mov	r22, r23
    203c:	78 2f       	mov	r23, r24
    203e:	88 27       	eor	r24, r24
    2040:	b8 5f       	subi	r27, 0xF8	; 248
    2042:	39 f0       	breq	.+14     	; 0x2052 <__fixunssfsi+0x4c>
    2044:	b9 3f       	cpi	r27, 0xF9	; 249
    2046:	cc f3       	brlt	.-14     	; 0x203a <__fixunssfsi+0x34>
    2048:	86 95       	lsr	r24
    204a:	77 95       	ror	r23
    204c:	67 95       	ror	r22
    204e:	b3 95       	inc	r27
    2050:	d9 f7       	brne	.-10     	; 0x2048 <__fixunssfsi+0x42>
    2052:	3e f4       	brtc	.+14     	; 0x2062 <__fixunssfsi+0x5c>
    2054:	90 95       	com	r25
    2056:	80 95       	com	r24
    2058:	70 95       	com	r23
    205a:	61 95       	neg	r22
    205c:	7f 4f       	sbci	r23, 0xFF	; 255
    205e:	8f 4f       	sbci	r24, 0xFF	; 255
    2060:	9f 4f       	sbci	r25, 0xFF	; 255
    2062:	08 95       	ret

00002064 <__floatunsisf>:
    2064:	e8 94       	clt
    2066:	09 c0       	rjmp	.+18     	; 0x207a <__floatsisf+0x12>

00002068 <__floatsisf>:
    2068:	97 fb       	bst	r25, 7
    206a:	3e f4       	brtc	.+14     	; 0x207a <__floatsisf+0x12>
    206c:	90 95       	com	r25
    206e:	80 95       	com	r24
    2070:	70 95       	com	r23
    2072:	61 95       	neg	r22
    2074:	7f 4f       	sbci	r23, 0xFF	; 255
    2076:	8f 4f       	sbci	r24, 0xFF	; 255
    2078:	9f 4f       	sbci	r25, 0xFF	; 255
    207a:	99 23       	and	r25, r25
    207c:	a9 f0       	breq	.+42     	; 0x20a8 <__floatsisf+0x40>
    207e:	f9 2f       	mov	r31, r25
    2080:	96 e9       	ldi	r25, 0x96	; 150
    2082:	bb 27       	eor	r27, r27
    2084:	93 95       	inc	r25
    2086:	f6 95       	lsr	r31
    2088:	87 95       	ror	r24
    208a:	77 95       	ror	r23
    208c:	67 95       	ror	r22
    208e:	b7 95       	ror	r27
    2090:	f1 11       	cpse	r31, r1
    2092:	f8 cf       	rjmp	.-16     	; 0x2084 <__floatsisf+0x1c>
    2094:	fa f4       	brpl	.+62     	; 0x20d4 <__floatsisf+0x6c>
    2096:	bb 0f       	add	r27, r27
    2098:	11 f4       	brne	.+4      	; 0x209e <__floatsisf+0x36>
    209a:	60 ff       	sbrs	r22, 0
    209c:	1b c0       	rjmp	.+54     	; 0x20d4 <__floatsisf+0x6c>
    209e:	6f 5f       	subi	r22, 0xFF	; 255
    20a0:	7f 4f       	sbci	r23, 0xFF	; 255
    20a2:	8f 4f       	sbci	r24, 0xFF	; 255
    20a4:	9f 4f       	sbci	r25, 0xFF	; 255
    20a6:	16 c0       	rjmp	.+44     	; 0x20d4 <__floatsisf+0x6c>
    20a8:	88 23       	and	r24, r24
    20aa:	11 f0       	breq	.+4      	; 0x20b0 <__floatsisf+0x48>
    20ac:	96 e9       	ldi	r25, 0x96	; 150
    20ae:	11 c0       	rjmp	.+34     	; 0x20d2 <__floatsisf+0x6a>
    20b0:	77 23       	and	r23, r23
    20b2:	21 f0       	breq	.+8      	; 0x20bc <__floatsisf+0x54>
    20b4:	9e e8       	ldi	r25, 0x8E	; 142
    20b6:	87 2f       	mov	r24, r23
    20b8:	76 2f       	mov	r23, r22
    20ba:	05 c0       	rjmp	.+10     	; 0x20c6 <__floatsisf+0x5e>
    20bc:	66 23       	and	r22, r22
    20be:	71 f0       	breq	.+28     	; 0x20dc <__floatsisf+0x74>
    20c0:	96 e8       	ldi	r25, 0x86	; 134
    20c2:	86 2f       	mov	r24, r22
    20c4:	70 e0       	ldi	r23, 0x00	; 0
    20c6:	60 e0       	ldi	r22, 0x00	; 0
    20c8:	2a f0       	brmi	.+10     	; 0x20d4 <__floatsisf+0x6c>
    20ca:	9a 95       	dec	r25
    20cc:	66 0f       	add	r22, r22
    20ce:	77 1f       	adc	r23, r23
    20d0:	88 1f       	adc	r24, r24
    20d2:	da f7       	brpl	.-10     	; 0x20ca <__floatsisf+0x62>
    20d4:	88 0f       	add	r24, r24
    20d6:	96 95       	lsr	r25
    20d8:	87 95       	ror	r24
    20da:	97 f9       	bld	r25, 7
    20dc:	08 95       	ret

000020de <__fp_cmp>:
    20de:	99 0f       	add	r25, r25
    20e0:	00 08       	sbc	r0, r0
    20e2:	55 0f       	add	r21, r21
    20e4:	aa 0b       	sbc	r26, r26
    20e6:	e0 e8       	ldi	r30, 0x80	; 128
    20e8:	fe ef       	ldi	r31, 0xFE	; 254
    20ea:	16 16       	cp	r1, r22
    20ec:	17 06       	cpc	r1, r23
    20ee:	e8 07       	cpc	r30, r24
    20f0:	f9 07       	cpc	r31, r25
    20f2:	c0 f0       	brcs	.+48     	; 0x2124 <__fp_cmp+0x46>
    20f4:	12 16       	cp	r1, r18
    20f6:	13 06       	cpc	r1, r19
    20f8:	e4 07       	cpc	r30, r20
    20fa:	f5 07       	cpc	r31, r21
    20fc:	98 f0       	brcs	.+38     	; 0x2124 <__fp_cmp+0x46>
    20fe:	62 1b       	sub	r22, r18
    2100:	73 0b       	sbc	r23, r19
    2102:	84 0b       	sbc	r24, r20
    2104:	95 0b       	sbc	r25, r21
    2106:	39 f4       	brne	.+14     	; 0x2116 <__fp_cmp+0x38>
    2108:	0a 26       	eor	r0, r26
    210a:	61 f0       	breq	.+24     	; 0x2124 <__fp_cmp+0x46>
    210c:	23 2b       	or	r18, r19
    210e:	24 2b       	or	r18, r20
    2110:	25 2b       	or	r18, r21
    2112:	21 f4       	brne	.+8      	; 0x211c <__fp_cmp+0x3e>
    2114:	08 95       	ret
    2116:	0a 26       	eor	r0, r26
    2118:	09 f4       	brne	.+2      	; 0x211c <__fp_cmp+0x3e>
    211a:	a1 40       	sbci	r26, 0x01	; 1
    211c:	a6 95       	lsr	r26
    211e:	8f ef       	ldi	r24, 0xFF	; 255
    2120:	81 1d       	adc	r24, r1
    2122:	81 1d       	adc	r24, r1
    2124:	08 95       	ret

00002126 <__fp_inf>:
    2126:	97 f9       	bld	r25, 7
    2128:	9f 67       	ori	r25, 0x7F	; 127
    212a:	80 e8       	ldi	r24, 0x80	; 128
    212c:	70 e0       	ldi	r23, 0x00	; 0
    212e:	60 e0       	ldi	r22, 0x00	; 0
    2130:	08 95       	ret

00002132 <__fp_nan>:
    2132:	9f ef       	ldi	r25, 0xFF	; 255
    2134:	80 ec       	ldi	r24, 0xC0	; 192
    2136:	08 95       	ret

00002138 <__fp_pscA>:
    2138:	00 24       	eor	r0, r0
    213a:	0a 94       	dec	r0
    213c:	16 16       	cp	r1, r22
    213e:	17 06       	cpc	r1, r23
    2140:	18 06       	cpc	r1, r24
    2142:	09 06       	cpc	r0, r25
    2144:	08 95       	ret

00002146 <__fp_pscB>:
    2146:	00 24       	eor	r0, r0
    2148:	0a 94       	dec	r0
    214a:	12 16       	cp	r1, r18
    214c:	13 06       	cpc	r1, r19
    214e:	14 06       	cpc	r1, r20
    2150:	05 06       	cpc	r0, r21
    2152:	08 95       	ret

00002154 <__fp_round>:
    2154:	09 2e       	mov	r0, r25
    2156:	03 94       	inc	r0
    2158:	00 0c       	add	r0, r0
    215a:	11 f4       	brne	.+4      	; 0x2160 <__fp_round+0xc>
    215c:	88 23       	and	r24, r24
    215e:	52 f0       	brmi	.+20     	; 0x2174 <__fp_round+0x20>
    2160:	bb 0f       	add	r27, r27
    2162:	40 f4       	brcc	.+16     	; 0x2174 <__fp_round+0x20>
    2164:	bf 2b       	or	r27, r31
    2166:	11 f4       	brne	.+4      	; 0x216c <__fp_round+0x18>
    2168:	60 ff       	sbrs	r22, 0
    216a:	04 c0       	rjmp	.+8      	; 0x2174 <__fp_round+0x20>
    216c:	6f 5f       	subi	r22, 0xFF	; 255
    216e:	7f 4f       	sbci	r23, 0xFF	; 255
    2170:	8f 4f       	sbci	r24, 0xFF	; 255
    2172:	9f 4f       	sbci	r25, 0xFF	; 255
    2174:	08 95       	ret

00002176 <__fp_split3>:
    2176:	57 fd       	sbrc	r21, 7
    2178:	90 58       	subi	r25, 0x80	; 128
    217a:	44 0f       	add	r20, r20
    217c:	55 1f       	adc	r21, r21
    217e:	59 f0       	breq	.+22     	; 0x2196 <__fp_splitA+0x10>
    2180:	5f 3f       	cpi	r21, 0xFF	; 255
    2182:	71 f0       	breq	.+28     	; 0x21a0 <__fp_splitA+0x1a>
    2184:	47 95       	ror	r20

00002186 <__fp_splitA>:
    2186:	88 0f       	add	r24, r24
    2188:	97 fb       	bst	r25, 7
    218a:	99 1f       	adc	r25, r25
    218c:	61 f0       	breq	.+24     	; 0x21a6 <__fp_splitA+0x20>
    218e:	9f 3f       	cpi	r25, 0xFF	; 255
    2190:	79 f0       	breq	.+30     	; 0x21b0 <__fp_splitA+0x2a>
    2192:	87 95       	ror	r24
    2194:	08 95       	ret
    2196:	12 16       	cp	r1, r18
    2198:	13 06       	cpc	r1, r19
    219a:	14 06       	cpc	r1, r20
    219c:	55 1f       	adc	r21, r21
    219e:	f2 cf       	rjmp	.-28     	; 0x2184 <__fp_split3+0xe>
    21a0:	46 95       	lsr	r20
    21a2:	f1 df       	rcall	.-30     	; 0x2186 <__fp_splitA>
    21a4:	08 c0       	rjmp	.+16     	; 0x21b6 <__fp_splitA+0x30>
    21a6:	16 16       	cp	r1, r22
    21a8:	17 06       	cpc	r1, r23
    21aa:	18 06       	cpc	r1, r24
    21ac:	99 1f       	adc	r25, r25
    21ae:	f1 cf       	rjmp	.-30     	; 0x2192 <__fp_splitA+0xc>
    21b0:	86 95       	lsr	r24
    21b2:	71 05       	cpc	r23, r1
    21b4:	61 05       	cpc	r22, r1
    21b6:	08 94       	sec
    21b8:	08 95       	ret

000021ba <__fp_zero>:
    21ba:	e8 94       	clt

000021bc <__fp_szero>:
    21bc:	bb 27       	eor	r27, r27
    21be:	66 27       	eor	r22, r22
    21c0:	77 27       	eor	r23, r23
    21c2:	cb 01       	movw	r24, r22
    21c4:	97 f9       	bld	r25, 7
    21c6:	08 95       	ret

000021c8 <__tablejump2__>:
    21c8:	ee 0f       	add	r30, r30
    21ca:	ff 1f       	adc	r31, r31
    21cc:	05 90       	lpm	r0, Z+
    21ce:	f4 91       	lpm	r31, Z
    21d0:	e0 2d       	mov	r30, r0
    21d2:	09 94       	ijmp

000021d4 <__muluhisi3>:
    21d4:	0e 94 f5 10 	call	0x21ea	; 0x21ea <__umulhisi3>
    21d8:	a5 9f       	mul	r26, r21
    21da:	90 0d       	add	r25, r0
    21dc:	b4 9f       	mul	r27, r20
    21de:	90 0d       	add	r25, r0
    21e0:	a4 9f       	mul	r26, r20
    21e2:	80 0d       	add	r24, r0
    21e4:	91 1d       	adc	r25, r1
    21e6:	11 24       	eor	r1, r1
    21e8:	08 95       	ret

000021ea <__umulhisi3>:
    21ea:	a2 9f       	mul	r26, r18
    21ec:	b0 01       	movw	r22, r0
    21ee:	b3 9f       	mul	r27, r19
    21f0:	c0 01       	movw	r24, r0
    21f2:	a3 9f       	mul	r26, r19
    21f4:	70 0d       	add	r23, r0
    21f6:	81 1d       	adc	r24, r1
    21f8:	11 24       	eor	r1, r1
    21fa:	91 1d       	adc	r25, r1
    21fc:	b2 9f       	mul	r27, r18
    21fe:	70 0d       	add	r23, r0
    2200:	81 1d       	adc	r24, r1
    2202:	11 24       	eor	r1, r1
    2204:	91 1d       	adc	r25, r1
    2206:	08 95       	ret

00002208 <_exit>:
    2208:	f8 94       	cli

0000220a <__stop_program>:
    220a:	ff cf       	rjmp	.-2      	; 0x220a <__stop_program>
